

Microchip MPLAB XC8 Assembler V2.10 build 88905656 
                                                                                               Wed Mar 04 10:56:45 2020

Microchip MPLAB XC8 C Compiler v2.10 (Free license) build 20190730164152 Og1 
     1                           	processor	18F4520
     2                           	fnconf	rparam,??,?,0
     3                           	opt	pw 120
     4                           	opt	flic
     5                           	psect	idataCOMRAM,global,class=CODE,delta=1,noexec
     6                           	psect	smallconst,global,reloc=2,class=SMALLCONST,delta=1,noexec
     7                           	psect	cinit,global,reloc=2,class=CODE,delta=1
     8                           	psect	bssCOMRAM,global,class=COMRAM,space=1,delta=1,noexec
     9                           	psect	dataCOMRAM,global,class=COMRAM,space=1,delta=1,noexec
    10                           	psect	cstackCOMRAM,global,class=COMRAM,space=1,delta=1,noexec
    11                           	psect	text0,global,reloc=2,class=CODE,delta=1
    12                           	psect	text1,global,reloc=2,class=CODE,delta=1
    13                           	psect	text2,global,reloc=2,class=CODE,delta=1
    14                           	psect	text3,global,reloc=2,class=CODE,delta=1
    15                           	psect	text4,global,reloc=2,class=CODE,delta=1
    16                           	psect	text5,global,reloc=2,class=CODE,delta=1
    17                           	psect	text6,global,reloc=2,class=CODE,delta=1
    18                           	psect	text7,global,reloc=2,class=CODE,delta=1
    19                           	psect	text8,global,reloc=2,class=CODE,delta=1
    20                           	psect	text9,global,reloc=2,class=CODE,delta=1
    21                           	psect	text10,global,reloc=2,class=CODE,delta=1
    22                           	psect	text11,global,reloc=2,class=CODE,delta=1,group=1
    23                           	psect	text12,global,reloc=2,class=CODE,delta=1
    24                           	psect	text13,global,reloc=2,class=CODE,delta=1
    25                           	psect	text14,global,reloc=2,class=CODE,delta=1
    26                           	psect	text15,global,reloc=2,class=CODE,delta=1,group=1
    27                           	psect	text16,global,reloc=2,class=CODE,delta=1,group=1
    28                           	psect	text17,global,reloc=2,class=CODE,delta=1
    29                           	psect	text18,global,reloc=2,class=CODE,delta=1
    30                           	psect	text19,global,reloc=2,class=CODE,delta=1
    31                           	psect	text20,global,reloc=2,class=CODE,delta=1
    32                           	psect	text21,global,reloc=2,class=CODE,delta=1
    33                           	psect	text22,global,reloc=2,class=CODE,delta=1
    34                           	psect	text23,global,reloc=2,class=CODE,delta=1
    35                           	psect	text24,global,reloc=2,class=CODE,delta=1,group=1
    36                           	psect	text25,global,reloc=2,class=CODE,delta=1
    37                           	psect	text26,global,reloc=2,class=CODE,delta=1
    38                           	psect	text27,global,reloc=2,class=CODE,delta=1
    39                           	psect	text28,global,reloc=2,class=CODE,delta=1
    40                           	psect	text29,global,reloc=2,class=CODE,delta=1
    41                           	psect	text30,global,reloc=2,class=CODE,delta=1
    42                           	psect	text31,global,reloc=2,class=CODE,delta=1
    43                           	psect	text32,global,reloc=2,class=CODE,delta=1
    44                           	psect	text33,global,reloc=2,class=CODE,delta=1
    45                           	psect	text34,global,reloc=2,class=CODE,delta=1
    46                           	psect	text35,global,reloc=2,class=CODE,delta=1
    47                           	psect	text36,global,reloc=2,class=CODE,delta=1
    48                           	psect	text37,global,reloc=2,class=CODE,delta=1
    49                           	psect	text38,global,reloc=2,class=CODE,delta=1
    50                           	psect	text39,global,reloc=2,class=CODE,delta=1
    51                           	psect	text40,global,reloc=2,class=CODE,delta=1
    52                           	psect	text41,global,reloc=2,class=CODE,delta=1
    53                           	psect	text42,global,reloc=2,class=CODE,delta=1
    54                           	psect	text43,global,reloc=2,class=CODE,delta=1
    55                           	psect	text44,global,reloc=2,class=CODE,delta=1
    56                           	psect	text45,global,reloc=2,class=CODE,delta=1,group=1
    57                           	psect	text46,global,reloc=2,class=CODE,delta=1,group=1
    58                           	psect	text47,global,reloc=2,class=CODE,delta=1
    59                           	psect	text48,global,reloc=2,class=CODE,delta=1
    60                           	psect	text49,global,reloc=2,class=CODE,delta=1
    61                           	psect	text50,global,reloc=2,class=CODE,delta=1
    62                           	psect	text51,global,reloc=2,class=CODE,delta=1
    63                           	psect	text52,global,reloc=2,class=CODE,delta=1
    64                           	psect	text53,global,reloc=2,class=CODE,delta=1
    65                           	psect	text54,global,reloc=2,class=CODE,delta=1
    66                           	psect	intcode,global,reloc=2,class=CODE,delta=1
    67                           	psect	intcode_body,global,reloc=2,class=CODE,delta=1
    68                           	psect	text56,global,reloc=2,class=CODE,delta=1
    69                           	psect	text57,global,reloc=2,class=CODE,delta=1
    70                           	psect	intsave_regs,global,class=BIGRAM,space=1,delta=1,noexec
    71                           	psect	text58,global,reloc=2,class=CODE,delta=1
    72                           	psect	rparam,global,class=COMRAM,space=1,delta=1,noexec
    73                           	psect	temp,global,ovrld,common,class=COMRAM,space=1,delta=1
    74  0000                     
    75                           ; Version 2.10
    76                           ; Generated 31/07/2019 GMT
    77                           ; 
    78                           ; Copyright © 2019, Microchip Technology Inc. and its subsidiaries ("Microchip")
    79                           ; All rights reserved.
    80                           ; 
    81                           ; This software is developed by Microchip Technology Inc. and its subsidiaries ("Microch
      +                          ip").
    82                           ; 
    83                           ; Redistribution and use in source and binary forms, with or without modification, are
    84                           ; permitted provided that the following conditions are met:
    85                           ; 
    86                           ;     1. Redistributions of source code must retain the above copyright notice, this lis
      +                          t of
    87                           ;        conditions and the following disclaimer.
    88                           ; 
    89                           ;     2. Redistributions in binary form must reproduce the above copyright notice, this 
      +                          list
    90                           ;        of conditions and the following disclaimer in the documentation and/or other
    91                           ;        materials provided with the distribution.
    92                           ; 
    93                           ;     3. Microchip's name may not be used to endorse or promote products derived from th
      +                          is
    94                           ;        software without specific prior written permission.
    95                           ; 
    96                           ; THIS SOFTWARE IS PROVIDED BY MICROCHIP "AS IS" AND ANY EXPRESS OR IMPLIED WARRANTIES,
    97                           ; INCLUDING, BUT NOT LIMITED TO, THE IMPLIED WARRANTIES OF MERCHANTABILITY AND FITNESS F
      +                          OR
    98                           ; PURPOSE ARE DISCLAIMED.  IN NO EVENT SHALL MICROCHIP BE LIABLE FOR ANY DIRECT, INDIREC
      +                          T,
    99                           ; INCIDENTAL, SPECIAL, EXEMPLARY, OR CONSEQUENTIAL DAMAGES (INCLUDING BUT NOT LIMITED TO
   100                           ; PROCUREMENT OF SUBSTITUTE GOODS OR SERVICES; LOSS OF USE, DATA OR PROFITS; OR BUSINESS
   101                           ; INTERRUPTION) HOWSOEVER CAUSED AND ON ANY THEORY OF LIABILITY, WHETHER IN CONTRACT, ST
      +                          RICT
   102                           ; LIABILITY, OR TORT (INCLUDING NEGLIGENCE OR OTHERWISE) ARISING IN ANY WAY OUT OF THE U
      +                          SE OF
   103                           ; THIS SOFTWARE, EVEN IF ADVISED OF THE POSSIBILITY OF SUCH DAMAGE.
   104                           ; 
   105                           ; 
   106                           ; Code-generator required, PIC18F4520 Definitions
   107                           ; 
   108                           ; SFR Addresses
   109  0000                     
   110                           	psect	idataCOMRAM
   111  002A64                     __pidataCOMRAM:
   112                           	opt callstack 0
   113                           
   114                           ;initializer for _Timer0_config_t
   115  002A64  04                 	db	4
   116  002A65  01                 	db	1
   117  002A66  00                 	db	0
   118  002A67  02                 	db	2
   119                           
   120                           ;initializer for _g_u8old_temp_reading
   121  002A68  64                 	db	100
   122                           
   123                           ;initializer for _g_u8keypad_button_val
   124  002A69  0A                 	db	10
   125                           
   126                           ;initializer for _g_door_state_t
   127  002A6A  01                 	db	1
   128                           
   129                           ;initializer for _g_u8timer_arr
   130  002A6B  30                 	db	48
   131  002A6C  30                 	db	48
   132  002A6D  3A                 	db	58
   133  002A6E  30                 	db	48
   134  002A6F  30                 	db	48
   135  002A70  00                 	db	0
   136                           
   137                           	psect	smallconst
   138  000600                     __psmallconst:
   139                           	opt callstack 0
   140  000600  00                 	db	0
   141  000601                     STR_7:
   142  000601  48                 	db	72	;'H'
   143  000602  65                 	db	101	;'e'
   144  000603  61                 	db	97	;'a'
   145  000604  74                 	db	116	;'t'
   146  000605  69                 	db	105	;'i'
   147  000606  6E                 	db	110	;'n'
   148  000607  67                 	db	103	;'g'
   149  000608  20                 	db	32
   150  000609  50                 	db	80	;'P'
   151  00060A  72                 	db	114	;'r'
   152  00060B  6F                 	db	111	;'o'
   153  00060C  63                 	db	99	;'c'
   154  00060D  65                 	db	101	;'e'
   155  00060E  73                 	db	115	;'s'
   156  00060F  73                 	db	115	;'s'
   157  000610  20                 	db	32
   158  000611  00                 	db	0
   159  000612                     STR_18:
   160  000612  2D                 	db	45
   161  000613  2D                 	db	45
   162  000614  2D                 	db	45
   163  000615  2D                 	db	45
   164  000616  2D                 	db	45
   165  000617  2D                 	db	45
   166  000618  2D                 	db	45
   167  000619  2D                 	db	45
   168  00061A  2D                 	db	45
   169  00061B  2D                 	db	45
   170  00061C  2D                 	db	45
   171  00061D  2D                 	db	45
   172  00061E  2D                 	db	45
   173  00061F  2D                 	db	45
   174  000620  2D                 	db	45
   175  000621  2D                 	db	45
   176  000622  00                 	db	0
   177  000623                     STR_13:
   178  000623  48                 	db	72	;'H'
   179  000624  65                 	db	101	;'e'
   180  000625  61                 	db	97	;'a'
   181  000626  74                 	db	116	;'t'
   182  000627  69                 	db	105	;'i'
   183  000628  6E                 	db	110	;'n'
   184  000629  67                 	db	103	;'g'
   185  00062A  20                 	db	32
   186  00062B  66                 	db	102	;'f'
   187  00062C  69                 	db	105	;'i'
   188  00062D  6E                 	db	110	;'n'
   189  00062E  69                 	db	105	;'i'
   190  00062F  73                 	db	115	;'s'
   191  000630  68                 	db	104	;'h'
   192  000631  65                 	db	101	;'e'
   193  000632  64                 	db	100	;'d'
   194  000633  00                 	db	0
   195  000634                     STR_25:
   196  000634  44                 	db	68	;'D'
   197  000635  6F                 	db	111	;'o'
   198  000636  6F                 	db	111	;'o'
   199  000637  72                 	db	114	;'r'
   200  000638  5F                 	db	95	;'_'
   201  000639  53                 	db	83	;'S'
   202  00063A  74                 	db	116	;'t'
   203  00063B  3A                 	db	58	;':'
   204  00063C  20                 	db	32
   205  00063D  20                 	db	32
   206  00063E  4F                 	db	79	;'O'
   207  00063F  70                 	db	112	;'p'
   208  000640  65                 	db	101	;'e'
   209  000641  6E                 	db	110	;'n'
   210  000642  65                 	db	101	;'e'
   211  000643  64                 	db	100	;'d'
   212  000644  00                 	db	0
   213  000645                     STR_9:
   214  000645  44                 	db	68	;'D'
   215  000646  6F                 	db	111	;'o'
   216  000647  6F                 	db	111	;'o'
   217  000648  72                 	db	114	;'r'
   218  000649  5F                 	db	95	;'_'
   219  00064A  53                 	db	83	;'S'
   220  00064B  74                 	db	116	;'t'
   221  00064C  3A                 	db	58	;':'
   222  00064D  20                 	db	32
   223  00064E  20                 	db	32
   224  00064F  43                 	db	67	;'C'
   225  000650  6C                 	db	108	;'l'
   226  000651  6F                 	db	111	;'o'
   227  000652  73                 	db	115	;'s'
   228  000653  65                 	db	101	;'e'
   229  000654  64                 	db	100	;'d'
   230  000655  00                 	db	0
   231  000656                     STR_10:
   232  000656  49                 	db	73	;'I'
   233  000657  6E                 	db	110	;'n'
   234  000658  73                 	db	115	;'s'
   235  000659  69                 	db	105	;'i'
   236  00065A  64                 	db	100	;'d'
   237  00065B  65                 	db	101	;'e'
   238  00065C  5F                 	db	95	;'_'
   239  00065D  53                 	db	83	;'S'
   240  00065E  74                 	db	116	;'t'
   241  00065F  3A                 	db	58	;':'
   242  000660  20                 	db	32
   243  000661  20                 	db	32
   244  000662  46                 	db	70	;'F'
   245  000663  6F                 	db	111	;'o'
   246  000664  6F                 	db	111	;'o'
   247  000665  64                 	db	100	;'d'
   248  000666  00                 	db	0
   249  000667                     STR_26:
   250  000667  49                 	db	73	;'I'
   251  000668  6E                 	db	110	;'n'
   252  000669  73                 	db	115	;'s'
   253  00066A  69                 	db	105	;'i'
   254  00066B  64                 	db	100	;'d'
   255  00066C  65                 	db	101	;'e'
   256  00066D  5F                 	db	95	;'_'
   257  00066E  53                 	db	83	;'S'
   258  00066F  74                 	db	116	;'t'
   259  000670  3A                 	db	58	;':'
   260  000671  4E                 	db	78	;'N'
   261  000672  5F                 	db	95	;'_'
   262  000673  46                 	db	70	;'F'
   263  000674  6F                 	db	111	;'o'
   264  000675  6F                 	db	111	;'o'
   265  000676  64                 	db	100	;'d'
   266  000677  00                 	db	0
   267  000678                     STR_8:
   268  000678  23                 	db	35
   269  000679  3A                 	db	58	;':'
   270  00067A  50                 	db	80	;'P'
   271  00067B  61                 	db	97	;'a'
   272  00067C  75                 	db	117	;'u'
   273  00067D  73                 	db	115	;'s'
   274  00067E  65                 	db	101	;'e'
   275  00067F  20                 	db	32
   276  000680  23                 	db	35
   277  000681  23                 	db	35
   278  000682  3A                 	db	58	;':'
   279  000683  53                 	db	83	;'S'
   280  000684  74                 	db	116	;'t'
   281  000685  6F                 	db	111	;'o'
   282  000686  70                 	db	112	;'p'
   283  000687  00                 	db	0
   284  000688                     STR_6:
   285  000688  54                 	db	84	;'T'
   286  000689  65                 	db	101	;'e'
   287  00068A  6D                 	db	109	;'m'
   288  00068B  70                 	db	112	;'p'
   289  00068C  65                 	db	101	;'e'
   290  00068D  72                 	db	114	;'r'
   291  00068E  61                 	db	97	;'a'
   292  00068F  74                 	db	116	;'t'
   293  000690  75                 	db	117	;'u'
   294  000691  72                 	db	114	;'r'
   295  000692  65                 	db	101	;'e'
   296  000693  3A                 	db	58	;':'
   297  000694  00                 	db	0
   298  000695                     STR_14:
   299  000695  50                 	db	80	;'P'
   300  000696  52                 	db	82	;'R'
   301  000697  45                 	db	69	;'E'
   302  000698  53                 	db	83	;'S'
   303  000699  53                 	db	83	;'S'
   304  00069A  20                 	db	32
   305  00069B  27                 	db	39
   306  00069C  23                 	db	35
   307  00069D  27                 	db	39
   308  00069E  20                 	db	32
   309  00069F  74                 	db	116	;'t'
   310  0006A0  6F                 	db	111	;'o'
   311  0006A1  00                 	db	0
   312  0006A2                     STR_15:
   313  0006A2  72                 	db	114	;'r'
   314  0006A3  65                 	db	101	;'e'
   315  0006A4  74                 	db	116	;'t'
   316  0006A5  75                 	db	117	;'u'
   317  0006A6  72                 	db	114	;'r'
   318  0006A7  6E                 	db	110	;'n'
   319  0006A8  20                 	db	32
   320  0006A9  68                 	db	104	;'h'
   321  0006AA  6F                 	db	111	;'o'
   322  0006AB  6D                 	db	109	;'m'
   323  0006AC  65                 	db	101	;'e'
   324  0006AD  00                 	db	0
   325  0006AE                     STR_17:
   326  0006AE  57                 	db	87	;'W'
   327  0006AF  65                 	db	101	;'e'
   328  0006B0  6C                 	db	108	;'l'
   329  0006B1  63                 	db	99	;'c'
   330  0006B2  6F                 	db	111	;'o'
   331  0006B3  6D                 	db	109	;'m'
   332  0006B4  65                 	db	101	;'e'
   333  0006B5  20                 	db	32
   334  0006B6  74                 	db	116	;'t'
   335  0006B7  6F                 	db	111	;'o'
   336  0006B8  00                 	db	0
   337  0006B9                     STR_19:
   338  0006B9  53                 	db	83	;'S'
   339  0006BA  57                 	db	87	;'W'
   340  0006BB  49                 	db	73	;'I'
   341  0006BC  46                 	db	70	;'F'
   342  0006BD  54                 	db	84	;'T'
   343  0006BE  20                 	db	32
   344  0006BF  41                 	db	65	;'A'
   345  0006C0  43                 	db	67	;'C'
   346  0006C1  54                 	db	84	;'T'
   347  0006C2  00                 	db	0
   348  0006C3                     STR_20:
   349  0006C3  4D                 	db	77	;'M'
   350  0006C4  69                 	db	105	;'i'
   351  0006C5  63                 	db	99	;'c'
   352  0006C6  72                 	db	114	;'r'
   353  0006C7  6F                 	db	111	;'o'
   354  0006C8  57                 	db	87	;'W'
   355  0006C9  61                 	db	97	;'a'
   356  0006CA  76                 	db	118	;'v'
   357  0006CB  65                 	db	101	;'e'
   358  0006CC  00                 	db	0
   359  0006CD                     STR_5:
   360  0006CD  54                 	db	84	;'T'
   361  0006CE  69                 	db	105	;'i'
   362  0006CF  6D                 	db	109	;'m'
   363  0006D0  65                 	db	101	;'e'
   364  0006D1  72                 	db	114	;'r'
   365  0006D2  3A                 	db	58	;':'
   366  0006D3  00                 	db	0
   367  0006D4                     STR_12:
   368  0006D4  30                 	db	48	;'0'
   369  0006D5  30                 	db	48	;'0'
   370  0006D6  3A                 	db	58	;':'
   371  0006D7  30                 	db	48	;'0'
   372  0006D8  30                 	db	48	;'0'
   373  0006D9  00                 	db	0
   374  0006DA                     STR_21:
   375  0006DA  54                 	db	84	;'T'
   376  0006DB  69                 	db	105	;'i'
   377  0006DC  6D                 	db	109	;'m'
   378  0006DD  65                 	db	101	;'e'
   379  0006DE  3A                 	db	58	;':'
   380  0006DF  00                 	db	0
   381  0006E0                     STR_22:
   382  0006E0  5F                 	db	95	;'_'
   383  0006E1  5F                 	db	95	;'_'
   384  0006E2  3A                 	db	58	;':'
   385  0006E3  5F                 	db	95	;'_'
   386  0006E4  5F                 	db	95	;'_'
   387  0006E5  00                 	db	0
   388  0000                     
   389                           ; #config settings
   390  0006E6  00                 	db	0	; dummy byte at the end
   391  0000                     
   392                           	psect	cinit
   393  002932                     __pcinit:
   394                           	opt callstack 0
   395  002932                     start_initialization:
   396                           	opt callstack 0
   397  002932                     __initialization:
   398                           	opt callstack 0
   399                           
   400                           ; Initialize objects allocated to COMRAM (13 bytes)
   401                           ; load TBLPTR registers with __pidataCOMRAM
   402  002932  0E64               	movlw	low __pidataCOMRAM
   403  002934  6EF6               	movwf	tblptrl,c
   404  002936  0E2A               	movlw	high __pidataCOMRAM
   405  002938  6EF7               	movwf	tblptrh,c
   406  00293A  0E00               	movlw	low (__pidataCOMRAM shr (0+16))
   407  00293C  6EF8               	movwf	tblptru,c
   408  00293E  EE00  F04A         	lfsr	0,__pdataCOMRAM
   409  002942  EE10 F00D          	lfsr	1,13
   410  002946                     copy_data0:
   411  002946  0009               	tblrd		*+
   412  002948  CFF5 FFEE          	movff	tablat,postinc0
   413  00294C  50E5               	movf	postdec1,w,c
   414  00294E  50E1               	movf	fsr1l,w,c
   415  002950  E1FA               	bnz	copy_data0
   416                           
   417                           ; Clear objects allocated to COMRAM (16 bytes)
   418  002952  EE00  F03A         	lfsr	0,__pbssCOMRAM
   419  002956  0E10               	movlw	16
   420  002958                     clear_0:
   421  002958  6AEE               	clrf	postinc0,c
   422  00295A  06E8               	decf	wreg,f,c
   423  00295C  E1FD               	bnz	clear_0
   424  00295E                     end_of_initialization:
   425                           	opt callstack 0
   426  00295E                     __end_of__initialization:
   427                           	opt callstack 0
   428  00295E  9057               	bcf	int$flags,0,c	;clear compiler interrupt flag (level 1)
   429  002960  9257               	bcf	int$flags,1,c	;clear compiler interrupt flag (level 2)
   430  002962  0E00               	movlw	low (__Lmediumconst shr (0+16))
   431  002964  6EF8               	movwf	tblptru,c
   432  002966  0100               	movlb	0
   433  002968  EF45  F00C         	goto	_main	;jump to C main() function
   434                           
   435                           	psect	bssCOMRAM
   436  00003A                     __pbssCOMRAM:
   437                           	opt callstack 0
   438  00003A                     _g_u16PWM_reg_value_at_100DutyCycle:
   439                           	opt callstack 0
   440  00003A                     	ds	2
   441  00003C                     _Timer2_config_t:
   442                           	opt callstack 0
   443  00003C                     	ds	2
   444  00003E                     Heating_process_has_done_function@u8counter:
   445                           	opt callstack 0
   446  00003E                     	ds	2
   447  000040                     _g_u16MicrowaveTime:
   448                           	opt callstack 0
   449  000040                     	ds	2
   450  000042                     _timer0_callback_ptr:
   451                           	opt callstack 0
   452  000042                     	ds	2
   453  000044                     _g_u8temperature:
   454                           	opt callstack 0
   455  000044                     	ds	1
   456  000045                     _g_u8time_digits:
   457                           	opt callstack 0
   458  000045                     	ds	1
   459  000046                     _g_inside_microwave:
   460                           	opt callstack 0
   461  000046                     	ds	1
   462  000047                     _g_u8heating_finished_flag:
   463                           	opt callstack 0
   464  000047                     	ds	1
   465  000048                     _g_system_state_var_t:
   466                           	opt callstack 0
   467  000048                     	ds	1
   468  000049                     _g_u8position:
   469                           	opt callstack 0
   470  000049                     	ds	1
   471                           
   472                           	psect	dataCOMRAM
   473  00004A                     __pdataCOMRAM:
   474                           	opt callstack 0
   475  00004A                     _Timer0_config_t:
   476                           	opt callstack 0
   477  00004A                     	ds	4
   478  00004E                     _g_u8old_temp_reading:
   479                           	opt callstack 0
   480  00004E                     	ds	1
   481  00004F                     _g_u8keypad_button_val:
   482                           	opt callstack 0
   483  00004F                     	ds	1
   484  000050                     _g_door_state_t:
   485                           	opt callstack 0
   486  000050                     	ds	1
   487  000051                     _g_u8timer_arr:
   488                           	opt callstack 0
   489  000051                     	ds	6
   490                           
   491                           	psect	cstackCOMRAM
   492  000001                     __pcstackCOMRAM:
   493                           	opt callstack 0
   494  000001                     Timer0_write_counter@a_u16init_value_for_timer:
   495                           	opt callstack 0
   496                           
   497                           ; 2 bytes @ 0x0
   498  000001                     	ds	2
   499  000003                     ??_ISR:
   500                           
   501                           ; 1 bytes @ 0x2
   502  000003                     	ds	3
   503  000006                     ??_ADC_Initialization:
   504  000006                     ?_ADC_Read_value:
   505                           	opt callstack 0
   506  000006                     ?___lmul:
   507                           	opt callstack 0
   508  000006                     ?___llmod:
   509                           	opt callstack 0
   510  000006                     ADC_Select_acquisition_time@a_ADC_acquisition_Time_t:
   511                           	opt callstack 0
   512  000006                     ADC_Select_prescaler@a_ADC_prescaler_t:
   513                           	opt callstack 0
   514  000006                     GPIO_SetPinDirection@a_u8pin:
   515                           	opt callstack 0
   516  000006                     GPIO_WriteOnPin@a_u8pin:
   517                           	opt callstack 0
   518  000006                     GPIO_WriteOnPort@a_u8value:
   519                           	opt callstack 0
   520  000006                     GPIO_ReadFromPin@a_u8pin:
   521                           	opt callstack 0
   522  000006                     GPIO_Disable_ADC_On_Pins@a_u8pin:
   523                           	opt callstack 0
   524  000006                     KeyPad_switch@a_u8col:
   525                           	opt callstack 0
   526  000006                     PWM_Initialization@a_PWM_channel_t:
   527                           	opt callstack 0
   528  000006                     PWM_Start@a_PWM_channel_t:
   529                           	opt callstack 0
   530  000006                     PWM_Stop@a_PWM_channel_t:
   531                           	opt callstack 0
   532  000006                     Timer2_write_period_register@a_u8init_value_for_period_register:
   533                           	opt callstack 0
   534  000006                     Timer0_set_callback_function@a_function_ptr:
   535                           	opt callstack 0
   536  000006                     ___lmul@multiplier:
   537                           	opt callstack 0
   538  000006                     ___llmod@dividend:
   539                           	opt callstack 0
   540                           
   541                           ; 4 bytes @ 0x5
   542  000006                     	ds	1
   543  000007                     ??_KeyPad_switch:
   544  000007                     ??_GPIO_WriteOnPort:
   545  000007                     ??_GPIO_ReadFromPin:
   546  000007                     ??_GPIO_Disable_ADC_On_Pins:
   547  000007                     GPIO_SetPinDirection@a_u8direction:
   548                           	opt callstack 0
   549  000007                     GPIO_WriteOnPin@a_u8value:
   550                           	opt callstack 0
   551                           
   552                           ; 1 bytes @ 0x6
   553  000007                     	ds	1
   554  000008                     ??_ADC_Read_value:
   555  000008                     ??_GPIO_SetPinDirection:
   556  000008                     ??_GPIO_WriteOnPin:
   557  000008                     ADC_Initialization@a_ADC_channel_t:
   558                           	opt callstack 0
   559                           
   560                           ; 1 bytes @ 0x7
   561  000008                     	ds	1
   562  000009                     GPIO_ReadFromPin@a_u8port:
   563                           	opt callstack 0
   564  000009                     GPIO_Disable_ADC_On_Pins@a_u8port:
   565                           	opt callstack 0
   566  000009                     KeyPad_switch@a_u8row:
   567                           	opt callstack 0
   568                           
   569                           ; 1 bytes @ 0x8
   570  000009                     	ds	1
   571  00000A                     GPIO_SetPinDirection@a_u8port:
   572                           	opt callstack 0
   573  00000A                     GPIO_WriteOnPin@a_u8port:
   574                           	opt callstack 0
   575  00000A                     GPIO_WriteOnPort@a_u8port:
   576                           	opt callstack 0
   577  00000A                     GPIO_ReadFromPin@retVal:
   578                           	opt callstack 0
   579  00000A                     KeyPad_switch@ReturnVal:
   580                           	opt callstack 0
   581  00000A                     ___lmul@multiplicand:
   582                           	opt callstack 0
   583  00000A                     ___llmod@divisor:
   584                           	opt callstack 0
   585                           
   586                           ; 4 bytes @ 0x9
   587  00000A                     	ds	2
   588  00000C                     ??_KeyPad_getPressedKey:
   589  00000C                     KeyPad_Initialization@u8counter_170:
   590                           	opt callstack 0
   591  00000C                     LCD_SendCommand@a_u8command:
   592                           	opt callstack 0
   593  00000C                     ADC_Read_value@retVal:
   594                           	opt callstack 0
   595                           
   596                           ; 2 bytes @ 0xB
   597  00000C                     	ds	1
   598  00000D                     KeyPad_Initialization@u8counter:
   599                           	opt callstack 0
   600  00000D                     KeyPad_getPressedKey@ReturnVal:
   601                           	opt callstack 0
   602  00000D                     LCD_SetDisplayPosition@a_u8position_Y:
   603                           	opt callstack 0
   604                           
   605                           ; 1 bytes @ 0xC
   606  00000D                     	ds	1
   607  00000E                     ??_LCD_SetDisplayPosition:
   608  00000E                     ?___wmul:
   609                           	opt callstack 0
   610  00000E                     KeyPad_getPressedKey@u8rowCounter:
   611                           	opt callstack 0
   612  00000E                     ___llmod@counter:
   613                           	opt callstack 0
   614  00000E                     ___wmul@multiplier:
   615                           	opt callstack 0
   616  00000E                     ___lmul@product:
   617                           	opt callstack 0
   618                           
   619                           ; 4 bytes @ 0xD
   620  00000E                     	ds	1
   621  00000F                     KeyPad_getPressedKey@u8colCounter:
   622                           	opt callstack 0
   623                           
   624                           ; 1 bytes @ 0xE
   625  00000F                     	ds	1
   626  000010                     LCD_SetDisplayPosition@a_u8position_X:
   627                           	opt callstack 0
   628  000010                     ___wmul@multiplicand:
   629                           	opt callstack 0
   630                           
   631                           ; 2 bytes @ 0xF
   632  000010                     	ds	1
   633  000011                     LCD_SendDataByte@a_u8data:
   634                           	opt callstack 0
   635                           
   636                           ; 1 bytes @ 0x10
   637  000011                     	ds	1
   638  000012                     ?___lldiv:
   639                           	opt callstack 0
   640  000012                     LCD_SendDataString@a_u8data_ptr:
   641                           	opt callstack 0
   642  000012                     ___wmul@product:
   643                           	opt callstack 0
   644  000012                     ___lldiv@dividend:
   645                           	opt callstack 0
   646                           
   647                           ; 4 bytes @ 0x11
   648  000012                     	ds	2
   649  000014                     ??_Welcome_screen_display:
   650  000014                     ??_Door_sensor_function:
   651  000014                     ??_Weight_sensor_function:
   652  000014                     ?___lwdiv:
   653                           	opt callstack 0
   654  000014                     ___lwdiv@dividend:
   655                           	opt callstack 0
   656                           
   657                           ; 2 bytes @ 0x13
   658  000014                     	ds	1
   659  000015                     
   660                           ; 1 bytes @ 0x14
   661  000015                     	ds	1
   662  000016                     ___lwdiv@divisor:
   663                           	opt callstack 0
   664  000016                     ___lldiv@divisor:
   665                           	opt callstack 0
   666                           
   667                           ; 4 bytes @ 0x15
   668  000016                     	ds	2
   669  000018                     ___lwdiv@quotient:
   670                           	opt callstack 0
   671                           
   672                           ; 2 bytes @ 0x17
   673  000018                     	ds	2
   674  00001A                     ___lwdiv@counter:
   675                           	opt callstack 0
   676  00001A                     ___lldiv@quotient:
   677                           	opt callstack 0
   678                           
   679                           ; 4 bytes @ 0x19
   680  00001A                     	ds	1
   681  00001B                     ?___lwmod:
   682                           	opt callstack 0
   683  00001B                     ___lwmod@dividend:
   684                           	opt callstack 0
   685                           
   686                           ; 2 bytes @ 0x1A
   687  00001B                     	ds	2
   688  00001D                     ___lwmod@divisor:
   689                           	opt callstack 0
   690                           
   691                           ; 2 bytes @ 0x1C
   692  00001D                     	ds	1
   693  00001E                     ___lldiv@counter:
   694                           	opt callstack 0
   695                           
   696                           ; 1 bytes @ 0x1D
   697  00001E                     	ds	1
   698  00001F                     PWM_DutyCycle@a_u16PWM_duty_cycle:
   699                           	opt callstack 0
   700  00001F                     ___lwmod@counter:
   701                           	opt callstack 0
   702  00001F                     LCD_DisplaNumber@a_s32number:
   703                           	opt callstack 0
   704  00001F                     PWM_Frequency@a_u32PWM_frequency:
   705                           	opt callstack 0
   706                           
   707                           ; 4 bytes @ 0x1E
   708  00001F                     	ds	1
   709  000020                     ??_PWM_DutyCycle:
   710  000020                     _Display_remind_time$1547:
   711                           	opt callstack 0
   712                           
   713                           ; 2 bytes @ 0x1F
   714  000020                     	ds	2
   715  000022                     PWM_DutyCycle@a_PWM_channel_t:
   716                           	opt callstack 0
   717                           
   718                           ; 1 bytes @ 0x21
   719  000022                     	ds	1
   720  000023                     ??_PWM_Frequency:
   721  000023                     ??_LCD_DisplaNumber:
   722  000023                     PWM_DutyCycle@u16PWM_register_val:
   723                           	opt callstack 0
   724                           
   725                           ; 2 bytes @ 0x22
   726  000023                     	ds	4
   727  000027                     PWM_Frequency@u8period_register_val:
   728                           	opt callstack 0
   729                           
   730                           ; 2 bytes @ 0x26
   731  000027                     	ds	3
   732  00002A                     LCD_DisplaNumber@u8counter:
   733                           	opt callstack 0
   734                           
   735                           ; 1 bytes @ 0x29
   736  00002A                     	ds	1
   737  00002B                     LCD_DisplaNumber@check:
   738                           	opt callstack 0
   739                           
   740                           ; 4 bytes @ 0x2A
   741  00002B                     	ds	4
   742  00002F                     LCD_DisplaNumber@DigitNo:
   743                           	opt callstack 0
   744                           
   745                           ; 1 bytes @ 0x2E
   746  00002F                     	ds	1
   747  000030                     LCD_DisplaNumber@div:
   748                           	opt callstack 0
   749                           
   750                           ; 4 bytes @ 0x2F
   751  000030                     	ds	4
   752  000034                     ??_Set_and_Display_desired_temp:
   753  000034                     ??_User_insert_time_and_start_heating_function:
   754                           
   755                           ; 1 bytes @ 0x33
   756  000034                     	ds	2
   757  000036                     _User_insert_time_and_start_heating_function$1548:
   758                           	opt callstack 0
   759                           
   760                           ; 2 bytes @ 0x35
   761  000036                     	ds	2
   762  000038                     ??_main:
   763                           
   764                           ; 1 bytes @ 0x37
   765  000038                     	ds	2
   766                           
   767 ;;
   768 ;;Main: autosize = 0, tempsize = 2, incstack = 0, save=0
   769 ;;
   770 ;; *************** function _main *****************
   771 ;; Defined at:
   772 ;;		line 20 in file "main.c"
   773 ;; Parameters:    Size  Location     Type
   774 ;;		None
   775 ;; Auto vars:     Size  Location     Type
   776 ;;		None
   777 ;; Return value:  Size  Location     Type
   778 ;;                  1    wreg      void 
   779 ;; Registers used:
   780 ;;		wreg, fsr0l, fsr0h, status,2, status,0, tblptrl, tblptrh, tblptru, prodl, prodh, cstack
   781 ;; Tracked objects:
   782 ;;		On entry : 0/0
   783 ;;		On exit  : 0/0
   784 ;;		Unchanged: 0/0
   785 ;; Data sizes:     COMRAM   BANK0   BANK1   BANK2   BANK3   BANK4   BANK5
   786 ;;      Params:         0       0       0       0       0       0       0
   787 ;;      Locals:         0       0       0       0       0       0       0
   788 ;;      Temps:          2       0       0       0       0       0       0
   789 ;;      Totals:         2       0       0       0       0       0       0
   790 ;;Total ram usage:        2 bytes
   791 ;; Hardware stack levels required when called:   10
   792 ;; This function calls:
   793 ;;		_ADC_Initialization
   794 ;;		_ADC_Select_acquisition_time
   795 ;;		_ADC_Select_prescaler
   796 ;;		_Display_remind_time
   797 ;;		_Door_sensor_function
   798 ;;		_GPIO_Disable_ADC_On_Pins
   799 ;;		_GPIO_Disable_Comparator_On_PORTA
   800 ;;		_GPIO_Enable_Pull_Up_On_PortB
   801 ;;		_GPIO_SetPinDirection
   802 ;;		_GPIO_WriteOnPin
   803 ;;		_Heating_process_has_done_function
   804 ;;		_Home_screen_display
   805 ;;		_If_heating_is_canceled_function
   806 ;;		_LCD_ClearScreen
   807 ;;		_LCD_Initialization
   808 ;;		_PWM_Frequency
   809 ;;		_PWM_Initialization
   810 ;;		_Reset_to_idle_state
   811 ;;		_Set_and_Display_desired_temp
   812 ;;		_Timer0_Initialization
   813 ;;		_Timer0_set_callback_function
   814 ;;		_User_insert_time_and_start_heating_function
   815 ;;		_Weight_sensor_function
   816 ;;		_Welcome_screen_display
   817 ;; This function is called by:
   818 ;;		Startup code after reset
   819 ;; This function uses a non-reentrant model
   820 ;;
   821                           
   822                           	psect	text0
   823  00188A                     __ptext0:
   824                           	opt callstack 0
   825  00188A                     _main:
   826                           	opt callstack 21
   827  00188A                     
   828                           ;main.c: 23:     GPIO_Disable_ADC_On_Pins(0u , 1u);
   829  00188A  0E01               	movlw	1
   830  00188C  6E06               	movwf	GPIO_Disable_ADC_On_Pins@a_u8pin^0,c
   831  00188E  0E00               	movlw	0
   832  001890  EC4C  F00A         	call	_GPIO_Disable_ADC_On_Pins
   833                           
   834                           ;main.c: 25:     GPIO_Disable_Comparator_On_PORTA();
   835  001894  EC48  F015         	call	_GPIO_Disable_Comparator_On_PORTA	;wreg free
   836  001898                     
   837                           ;main.c: 27:     GPIO_Enable_Pull_Up_On_PortB();
   838  001898  EC5B  F015         	call	_GPIO_Enable_Pull_Up_On_PortB	;wreg free
   839  00189C                     
   840                           ;main.c: 29:     GPIO_SetPinDirection(2u , 5u , 0u);
   841  00189C  0E05               	movlw	5
   842  00189E  6E06               	movwf	GPIO_SetPinDirection@a_u8pin^0,c
   843  0018A0  0E00               	movlw	0
   844  0018A2  6E07               	movwf	GPIO_SetPinDirection@a_u8direction^0,c
   845  0018A4  0E02               	movlw	2
   846  0018A6  EC4D  F005         	call	_GPIO_SetPinDirection
   847  0018AA                     
   848                           ;main.c: 31:     GPIO_SetPinDirection(2u , 1u , 0u);
   849  0018AA  0E01               	movlw	1
   850  0018AC  6E06               	movwf	GPIO_SetPinDirection@a_u8pin^0,c
   851  0018AE  0E00               	movlw	0
   852  0018B0  6E07               	movwf	GPIO_SetPinDirection@a_u8direction^0,c
   853  0018B2  0E02               	movlw	2
   854  0018B4  EC4D  F005         	call	_GPIO_SetPinDirection
   855  0018B8                     
   856                           ;main.c: 33:     GPIO_WriteOnPin(2u , 1u , 1u);
   857  0018B8  0E01               	movlw	1
   858  0018BA  6E06               	movwf	GPIO_WriteOnPin@a_u8pin^0,c
   859  0018BC  0E01               	movlw	1
   860  0018BE  6E07               	movwf	GPIO_WriteOnPin@a_u8value^0,c
   861  0018C0  0E02               	movlw	2
   862  0018C2  EC9A  F006         	call	_GPIO_WriteOnPin
   863  0018C6                     
   864                           ;main.c: 35:     GPIO_SetPinDirection(1u , 7u , 0u);
   865  0018C6  0E07               	movlw	7
   866  0018C8  6E06               	movwf	GPIO_SetPinDirection@a_u8pin^0,c
   867  0018CA  0E00               	movlw	0
   868  0018CC  6E07               	movwf	GPIO_SetPinDirection@a_u8direction^0,c
   869  0018CE  0E01               	movlw	1
   870  0018D0  EC4D  F005         	call	_GPIO_SetPinDirection
   871  0018D4                     
   872                           ;main.c: 37:     GPIO_WriteOnPin(1u , 7u , 0u);
   873  0018D4  0E07               	movlw	7
   874  0018D6  6E06               	movwf	GPIO_WriteOnPin@a_u8pin^0,c
   875  0018D8  0E00               	movlw	0
   876  0018DA  6E07               	movwf	GPIO_WriteOnPin@a_u8value^0,c
   877  0018DC  0E01               	movlw	1
   878  0018DE  EC9A  F006         	call	_GPIO_WriteOnPin
   879  0018E2                     
   880                           ;main.c: 39:     GPIO_SetPinDirection(1u , 4u , 1u);
   881  0018E2  0E04               	movlw	4
   882  0018E4  6E06               	movwf	GPIO_SetPinDirection@a_u8pin^0,c
   883  0018E6  0E01               	movlw	1
   884  0018E8  6E07               	movwf	GPIO_SetPinDirection@a_u8direction^0,c
   885  0018EA  0E01               	movlw	1
   886  0018EC  EC4D  F005         	call	_GPIO_SetPinDirection
   887  0018F0                     
   888                           ;main.c: 41:     GPIO_SetPinDirection(1u , 5u , 1u);
   889  0018F0  0E05               	movlw	5
   890  0018F2  6E06               	movwf	GPIO_SetPinDirection@a_u8pin^0,c
   891  0018F4  0E01               	movlw	1
   892  0018F6  6E07               	movwf	GPIO_SetPinDirection@a_u8direction^0,c
   893  0018F8  0E01               	movlw	1
   894  0018FA  EC4D  F005         	call	_GPIO_SetPinDirection
   895  0018FE                     
   896                           ;main.c: 43:     LCD_Initialization();
   897  0018FE  EC61  F00E         	call	_LCD_Initialization	;wreg free
   898  001902                     
   899                           ;main.c: 46:     PWM_Initialization(PWM_CHANNEL_1);
   900  001902  0E00               	movlw	0
   901  001904  EC00  F015         	call	_PWM_Initialization
   902  001908                     
   903                           ;main.c: 48:     PWM_Frequency(3000);
   904  001908  0EB8               	movlw	184
   905  00190A  6E1F               	movwf	PWM_Frequency@a_u32PWM_frequency^0,c
   906  00190C  0E0B               	movlw	11
   907  00190E  6E20               	movwf	(PWM_Frequency@a_u32PWM_frequency+1)^0,c
   908  001910  0E00               	movlw	0
   909  001912  6E21               	movwf	(PWM_Frequency@a_u32PWM_frequency+2)^0,c
   910  001914  0E00               	movlw	0
   911  001916  6E22               	movwf	(PWM_Frequency@a_u32PWM_frequency+3)^0,c
   912  001918  ECCC  F008         	call	_PWM_Frequency	;wreg free
   913  00191C                     
   914                           ;main.c: 51:     ADC_Initialization(ADC_CHANNEL_0);
   915  00191C  0E00               	movlw	0
   916  00191E  ECE5  F00C         	call	_ADC_Initialization
   917  001922                     
   918                           ;main.c: 53:     ADC_Select_acquisition_time(ADC_ACQUISITION_TIME_4);
   919  001922  0E02               	movlw	2
   920  001924  EC1C  F015         	call	_ADC_Select_acquisition_time
   921  001928                     
   922                           ;main.c: 56:     ADC_Select_prescaler(ADC_PRESCALER_16);
   923  001928  0E05               	movlw	5
   924  00192A  EC2B  F015         	call	_ADC_Select_prescaler
   925  00192E                     
   926                           ;main.c: 58:     Timer0_Initialization();
   927  00192E  EC43  F013         	call	_Timer0_Initialization	;wreg free
   928  001932                     
   929                           ;main.c: 60:     Timer0_set_callback_function(TIMER0_ISR);
   930  001932  0E20               	movlw	low _TIMER0_ISR
   931  001934  6E06               	movwf	Timer0_set_callback_function@a_function_ptr^0,c
   932  001936  0E2A               	movlw	high _TIMER0_ISR
   933  001938  6E07               	movwf	(Timer0_set_callback_function@a_function_ptr+1)^0,c
   934  00193A  EC3F  F015         	call	_Timer0_set_callback_function	;wreg free
   935  00193E                     
   936                           ;main.c: 62:     Welcome_screen_display();
   937  00193E  EC0A  F013         	call	_Welcome_screen_display	;wreg free
   938  001942                     
   939                           ;main.c: 64:     Home_screen_display();
   940  001942  EC04  F010         	call	_Home_screen_display	;wreg free
   941  001946  EFCA  F00C         	goto	l4519
   942  00194A                     l4495:
   943                           
   944                           ;main.c: 75:                 Set_and_Display_desired_temp();
   945  00194A  EC17  F012         	call	_Set_and_Display_desired_temp	;wreg free
   946  00194E                     
   947                           ;main.c: 77:                 Door_sensor_function();
   948  00194E  EC46  F011         	call	_Door_sensor_function	;wreg free
   949  001952                     
   950                           ;main.c: 79:                 Weight_sensor_function();
   951  001952  ECAB  F010         	call	_Weight_sensor_function	;wreg free
   952  001956                     
   953                           ;main.c: 82:                 User_insert_time_and_start_heating_function();
   954  001956  EC74  F003         	call	_User_insert_time_and_start_heating_function	;wreg free
   955                           
   956                           ;main.c: 83:                 break;
   957  00195A  EFCA  F00C         	goto	l4519
   958  00195E                     l4503:
   959                           
   960                           ;main.c: 88:                 Set_and_Display_desired_temp();
   961  00195E  EC17  F012         	call	_Set_and_Display_desired_temp	;wreg free
   962  001962                     
   963                           ;main.c: 90:                 Display_remind_time();
   964  001962  ECD6  F00E         	call	_Display_remind_time	;wreg free
   965  001966                     
   966                           ;main.c: 92:                 If_heating_is_canceled_function();
   967  001966  EC58  F012         	call	_If_heating_is_canceled_function	;wreg free
   968  00196A                     
   969                           ;main.c: 94:                 if (g_u16MicrowaveTime == 0)
   970  00196A  5040               	movf	_g_u16MicrowaveTime^0,w,c
   971  00196C  1041               	iorwf	(_g_u16MicrowaveTime+1)^0,w,c
   972  00196E  A4D8               	btfss	status,2,c
   973  001970  EFBC  F00C         	goto	u3191
   974  001974  EFBE  F00C         	goto	u3190
   975  001978                     u3191:
   976  001978  EFCA  F00C         	goto	l500
   977  00197C                     u3190:
   978  00197C                     
   979                           ;main.c: 95:                 {;main.c: 96:                     g_system_state_var_t = SY
      +                          STEM_END_TIME;
   980  00197C  0E02               	movlw	2
   981  00197E  6E48               	movwf	_g_system_state_var_t^0,c
   982  001980                     
   983                           ;main.c: 97:                     LCD_ClearScreen();
   984  001980  EC39  F015         	call	_LCD_ClearScreen	;wreg free
   985  001984  EFCA  F00C         	goto	l4519
   986  001988                     l4515:
   987                           
   988                           ;main.c: 103:                 Heating_process_has_done_function();
   989  001988  ECF8  F00A         	call	_Heating_process_has_done_function	;wreg free
   990                           
   991                           ;main.c: 105:                 Reset_to_idle_state();
   992  00198C  ECDF  F013         	call	_Reset_to_idle_state	;wreg free
   993                           
   994                           ;main.c: 106:                 break;
   995  001990  EFCA  F00C         	goto	l4519
   996  001994                     l500:
   997  001994                     l4519:
   998  001994  5048               	movf	_g_system_state_var_t^0,w,c
   999  001996  6E38               	movwf	??_main^0,c
  1000  001998  6A39               	clrf	(??_main+1)^0,c
  1001                           
  1002                           ; Switch on 2 bytes has been partitioned into a top level switch of size 1, and 1 sub-sw
      +                          itches
  1003                           ; Switch size 1, requested type "simple"
  1004                           ; Number of cases is 1, Range of values is 0 to 0
  1005                           ; switch strategies available:
  1006                           ; Name         Instructions Cycles
  1007                           ; simple_byte            4     3 (average)
  1008                           ;	Chosen strategy is simple_byte
  1009  00199A  5039               	movf	(??_main+1)^0,w,c
  1010  00199C  0A00               	xorlw	0	; case 0
  1011  00199E  B4D8               	btfsc	status,2,c
  1012  0019A0  EFD4  F00C         	goto	l4593
  1013  0019A4  EFCA  F00C         	goto	l500
  1014  0019A8                     l4593:
  1015                           
  1016                           ; Switch size 1, requested type "simple"
  1017                           ; Number of cases is 3, Range of values is 0 to 2
  1018                           ; switch strategies available:
  1019                           ; Name         Instructions Cycles
  1020                           ; simple_byte           10     6 (average)
  1021                           ;	Chosen strategy is simple_byte
  1022  0019A8  5038               	movf	??_main^0,w,c
  1023  0019AA  0A00               	xorlw	0	; case 0
  1024  0019AC  B4D8               	btfsc	status,2,c
  1025  0019AE  EFA5  F00C         	goto	l4495
  1026  0019B2  0A01               	xorlw	1	; case 1
  1027  0019B4  B4D8               	btfsc	status,2,c
  1028  0019B6  EFAF  F00C         	goto	l4503
  1029  0019BA  0A03               	xorlw	3	; case 2
  1030  0019BC  B4D8               	btfsc	status,2,c
  1031  0019BE  EFC4  F00C         	goto	l4515
  1032  0019C2  EFCA  F00C         	goto	l500
  1033  0019C6  EF07  F000         	goto	start
  1034  0019CA                     __end_of_main:
  1035                           	opt callstack 0
  1036                           
  1037 ;; *************** function _Welcome_screen_display *****************
  1038 ;; Defined at:
  1039 ;;		line 583 in file "microwave.c"
  1040 ;; Parameters:    Size  Location     Type
  1041 ;;		None
  1042 ;; Auto vars:     Size  Location     Type
  1043 ;;		None
  1044 ;; Return value:  Size  Location     Type
  1045 ;;                  1    wreg      void 
  1046 ;; Registers used:
  1047 ;;		wreg, fsr0l, fsr0h, status,2, status,0, tblptrl, tblptrh, tblptru, cstack
  1048 ;; Tracked objects:
  1049 ;;		On entry : 0/0
  1050 ;;		On exit  : 0/0
  1051 ;;		Unchanged: 0/0
  1052 ;; Data sizes:     COMRAM   BANK0   BANK1   BANK2   BANK3   BANK4   BANK5
  1053 ;;      Params:         0       0       0       0       0       0       0
  1054 ;;      Locals:         0       0       0       0       0       0       0
  1055 ;;      Temps:          2       0       0       0       0       0       0
  1056 ;;      Totals:         2       0       0       0       0       0       0
  1057 ;;Total ram usage:        2 bytes
  1058 ;; Hardware stack levels used:    1
  1059 ;; Hardware stack levels required when called:    8
  1060 ;; This function calls:
  1061 ;;		_LCD_SendDataString
  1062 ;;		_LCD_SetDisplayPosition
  1063 ;; This function is called by:
  1064 ;;		_main
  1065 ;; This function uses a non-reentrant model
  1066 ;;
  1067                           
  1068                           	psect	text1
  1069  002614                     __ptext1:
  1070                           	opt callstack 0
  1071  002614                     _Welcome_screen_display:
  1072                           	opt callstack 22
  1073  002614                     
  1074                           ;microwave.c: 586:     LCD_SetDisplayPosition(3,1);
  1075  002614  0E01               	movlw	1
  1076  002616  6E0D               	movwf	LCD_SetDisplayPosition@a_u8position_Y^0,c
  1077  002618  0E03               	movlw	3
  1078  00261A  ECFA  F010         	call	_LCD_SetDisplayPosition
  1079  00261E                     
  1080                           ;microwave.c: 587:     LCD_SendDataString("Welcome to");
  1081  00261E  0EAE               	movlw	low STR_17
  1082  002620  6E12               	movwf	LCD_SendDataString@a_u8data_ptr^0,c
  1083  002622  0E06               	movlw	high STR_17
  1084  002624  6E13               	movwf	(LCD_SendDataString@a_u8data_ptr+1)^0,c
  1085  002626  EC0F  F014         	call	_LCD_SendDataString	;wreg free
  1086  00262A                     
  1087                           ;microwave.c: 588:     LCD_SetDisplayPosition(0,2);
  1088  00262A  0E02               	movlw	2
  1089  00262C  6E0D               	movwf	LCD_SetDisplayPosition@a_u8position_Y^0,c
  1090  00262E  0E00               	movlw	0
  1091  002630  ECFA  F010         	call	_LCD_SetDisplayPosition
  1092                           
  1093                           ;microwave.c: 589:     LCD_SendDataString("----------------");
  1094  002634  0E12               	movlw	low STR_18
  1095  002636  6E12               	movwf	LCD_SendDataString@a_u8data_ptr^0,c
  1096  002638  0E06               	movlw	high STR_18
  1097  00263A  6E13               	movwf	(LCD_SendDataString@a_u8data_ptr+1)^0,c
  1098  00263C  EC0F  F014         	call	_LCD_SendDataString	;wreg free
  1099  002640                     
  1100                           ;microwave.c: 590:     LCD_SetDisplayPosition(0,3);
  1101  002640  0E03               	movlw	3
  1102  002642  6E0D               	movwf	LCD_SetDisplayPosition@a_u8position_Y^0,c
  1103  002644  0E00               	movlw	0
  1104  002646  ECFA  F010         	call	_LCD_SetDisplayPosition
  1105  00264A                     
  1106                           ;microwave.c: 591:     LCD_SendDataString("SWIFT ACT");
  1107  00264A  0EB9               	movlw	low STR_19
  1108  00264C  6E12               	movwf	LCD_SendDataString@a_u8data_ptr^0,c
  1109  00264E  0E06               	movlw	high STR_19
  1110  002650  6E13               	movwf	(LCD_SendDataString@a_u8data_ptr+1)^0,c
  1111  002652  EC0F  F014         	call	_LCD_SendDataString	;wreg free
  1112                           
  1113                           ;microwave.c: 592:     LCD_SetDisplayPosition(7,4);
  1114  002656  0E04               	movlw	4
  1115  002658  6E0D               	movwf	LCD_SetDisplayPosition@a_u8position_Y^0,c
  1116  00265A  0E07               	movlw	7
  1117  00265C  ECFA  F010         	call	_LCD_SetDisplayPosition
  1118  002660                     
  1119                           ;microwave.c: 593:     LCD_SendDataString("MicroWave");
  1120  002660  0EC3               	movlw	low STR_20
  1121  002662  6E12               	movwf	LCD_SendDataString@a_u8data_ptr^0,c
  1122  002664  0E06               	movlw	high STR_20
  1123  002666  6E13               	movwf	(LCD_SendDataString@a_u8data_ptr+1)^0,c
  1124  002668  EC0F  F014         	call	_LCD_SendDataString	;wreg free
  1125  00266C                     
  1126                           ;microwave.c: 594:     _delay((unsigned long)((2000)*(8000000u/4000.0)));
  1127  00266C  0E15               	movlw	21
  1128  00266E  6E15               	movwf	(??_Welcome_screen_display+1)^0,c
  1129  002670  0E4B               	movlw	75
  1130  002672  6E14               	movwf	??_Welcome_screen_display^0,c
  1131  002674  0EBE               	movlw	190
  1132  002676                     u3207:
  1133  002676  2EE8               	decfsz	wreg,f,c
  1134  002678  D7FE               	bra	u3207
  1135  00267A  2E14               	decfsz	??_Welcome_screen_display^0,f,c
  1136  00267C  D7FC               	bra	u3207
  1137  00267E  2E15               	decfsz	(??_Welcome_screen_display+1)^0,f,c
  1138  002680  D7FA               	bra	u3207
  1139  002682  D000               	nop2	
  1140  002684  0012               	return		;funcret
  1141  002686                     __end_of_Welcome_screen_display:
  1142                           	opt callstack 0
  1143                           
  1144 ;; *************** function _Weight_sensor_function *****************
  1145 ;; Defined at:
  1146 ;;		line 215 in file "microwave.c"
  1147 ;; Parameters:    Size  Location     Type
  1148 ;;		None
  1149 ;; Auto vars:     Size  Location     Type
  1150 ;;		None
  1151 ;; Return value:  Size  Location     Type
  1152 ;;                  1    wreg      void 
  1153 ;; Registers used:
  1154 ;;		wreg, fsr0l, fsr0h, status,2, status,0, tblptrl, tblptrh, tblptru, cstack
  1155 ;; Tracked objects:
  1156 ;;		On entry : 0/0
  1157 ;;		On exit  : 0/0
  1158 ;;		Unchanged: 0/0
  1159 ;; Data sizes:     COMRAM   BANK0   BANK1   BANK2   BANK3   BANK4   BANK5
  1160 ;;      Params:         0       0       0       0       0       0       0
  1161 ;;      Locals:         0       0       0       0       0       0       0
  1162 ;;      Temps:          1       0       0       0       0       0       0
  1163 ;;      Totals:         1       0       0       0       0       0       0
  1164 ;;Total ram usage:        1 bytes
  1165 ;; Hardware stack levels used:    1
  1166 ;; Hardware stack levels required when called:    8
  1167 ;; This function calls:
  1168 ;;		_GPIO_ReadFromPin
  1169 ;;		_LCD_SendDataString
  1170 ;;		_LCD_SetDisplayPosition
  1171 ;; This function is called by:
  1172 ;;		_main
  1173 ;; This function uses a non-reentrant model
  1174 ;;
  1175                           
  1176                           	psect	text2
  1177  002156                     __ptext2:
  1178                           	opt callstack 0
  1179  002156                     _Weight_sensor_function:
  1180                           	opt callstack 22
  1181  002156                     
  1182                           ;microwave.c: 218:     if(g_door_state_t == DOOR_IS_OPENED && GPIO_ReadFromPin(1u , 5u) 
      +                          == 0u)
  1183  002156  5050               	movf	_g_door_state_t^0,w,c
  1184  002158  A4D8               	btfss	status,2,c
  1185  00215A  EFB1  F010         	goto	u2931
  1186  00215E  EFB3  F010         	goto	u2930
  1187  002162                     u2931:
  1188  002162  EFF9  F010         	goto	l606
  1189  002166                     u2930:
  1190  002166  0E05               	movlw	5
  1191  002168  6E06               	movwf	GPIO_ReadFromPin@a_u8pin^0,c
  1192  00216A  0E01               	movlw	1
  1193  00216C  EC70  F00D         	call	_GPIO_ReadFromPin
  1194  002170  0900               	iorlw	0
  1195  002172  A4D8               	btfss	status,2,c
  1196  002174  EFBE  F010         	goto	u2941
  1197  002178  EFC0  F010         	goto	u2940
  1198  00217C                     u2941:
  1199  00217C  EFF9  F010         	goto	l606
  1200  002180                     u2940:
  1201  002180                     
  1202                           ;microwave.c: 219:     {;microwave.c: 221:         _delay((unsigned long)((10)*(8000000u
      +                          /4000.0)));
  1203  002180  0E1A               	movlw	26
  1204  002182  6E14               	movwf	??_Weight_sensor_function^0,c
  1205  002184  0EF8               	movlw	248
  1206  002186                     u3217:
  1207  002186  2EE8               	decfsz	wreg,f,c
  1208  002188  D7FE               	bra	u3217
  1209  00218A  2E14               	decfsz	??_Weight_sensor_function^0,f,c
  1210  00218C  D7FC               	bra	u3217
  1211  00218E  D000               	nop2	
  1212  002190                     l4157:
  1213  002190  0E05               	movlw	5
  1214  002192  6E06               	movwf	GPIO_ReadFromPin@a_u8pin^0,c
  1215  002194  0E01               	movlw	1
  1216  002196  EC70  F00D         	call	_GPIO_ReadFromPin
  1217  00219A  0900               	iorlw	0
  1218  00219C  B4D8               	btfsc	status,2,c
  1219  00219E  EFD3  F010         	goto	u2951
  1220  0021A2  EFD5  F010         	goto	u2950
  1221  0021A6                     u2951:
  1222  0021A6  EFC8  F010         	goto	l4157
  1223  0021AA                     u2950:
  1224  0021AA                     
  1225                           ;microwave.c: 225:         if(g_inside_microwave == MICROWAVE_IS_EMPTY)
  1226  0021AA  5046               	movf	_g_inside_microwave^0,w,c
  1227  0021AC  A4D8               	btfss	status,2,c
  1228  0021AE  EFDB  F010         	goto	u2961
  1229  0021B2  EFDD  F010         	goto	u2960
  1230  0021B6                     u2961:
  1231  0021B6  EFEC  F010         	goto	l4167
  1232  0021BA                     u2960:
  1233  0021BA                     
  1234                           ;microwave.c: 226:         {;microwave.c: 227:             g_inside_microwave = MICROWAV
      +                          E_HAS_SOMETHING_INSIDE;
  1235  0021BA  0E01               	movlw	1
  1236  0021BC  6E46               	movwf	_g_inside_microwave^0,c
  1237  0021BE                     
  1238                           ;microwave.c: 228:             LCD_SetDisplayPosition(10 , 4);
  1239  0021BE  0E04               	movlw	4
  1240  0021C0  6E0D               	movwf	LCD_SetDisplayPosition@a_u8position_Y^0,c
  1241  0021C2  0E0A               	movlw	10
  1242  0021C4  ECFA  F010         	call	_LCD_SetDisplayPosition
  1243  0021C8                     
  1244                           ;microwave.c: 229:             LCD_SendDataString("  Food");
  1245  0021C8  0E60               	movlw	low (STR_10+10)
  1246  0021CA  6E12               	movwf	LCD_SendDataString@a_u8data_ptr^0,c
  1247  0021CC  0E06               	movlw	high (STR_10+10)
  1248  0021CE  6E13               	movwf	(LCD_SendDataString@a_u8data_ptr+1)^0,c
  1249  0021D0  EC0F  F014         	call	_LCD_SendDataString	;wreg free
  1250                           
  1251                           ;microwave.c: 230:         }
  1252  0021D4  EFF9  F010         	goto	l606
  1253  0021D8                     l4167:
  1254                           
  1255                           ;microwave.c: 232:         {;microwave.c: 233:             g_inside_microwave = MICROWAV
      +                          E_IS_EMPTY;
  1256  0021D8  0E00               	movlw	0
  1257  0021DA  6E46               	movwf	_g_inside_microwave^0,c
  1258  0021DC                     
  1259                           ;microwave.c: 234:             LCD_SetDisplayPosition(10 , 4);
  1260  0021DC  0E04               	movlw	4
  1261  0021DE  6E0D               	movwf	LCD_SetDisplayPosition@a_u8position_Y^0,c
  1262  0021E0  0E0A               	movlw	10
  1263  0021E2  ECFA  F010         	call	_LCD_SetDisplayPosition
  1264  0021E6                     
  1265                           ;microwave.c: 235:             LCD_SendDataString("N_Food");
  1266  0021E6  0E71               	movlw	low (STR_26+10)
  1267  0021E8  6E12               	movwf	LCD_SendDataString@a_u8data_ptr^0,c
  1268  0021EA  0E06               	movlw	high (STR_26+10)
  1269  0021EC  6E13               	movwf	(LCD_SendDataString@a_u8data_ptr+1)^0,c
  1270  0021EE  EC0F  F014         	call	_LCD_SendDataString	;wreg free
  1271  0021F2                     l606:
  1272  0021F2  0012               	return		;funcret
  1273  0021F4                     __end_of_Weight_sensor_function:
  1274                           	opt callstack 0
  1275                           
  1276 ;; *************** function _User_insert_time_and_start_heating_function *****************
  1277 ;; Defined at:
  1278 ;;		line 258 in file "microwave.c"
  1279 ;; Parameters:    Size  Location     Type
  1280 ;;		None
  1281 ;; Auto vars:     Size  Location     Type
  1282 ;;		None
  1283 ;; Return value:  Size  Location     Type
  1284 ;;                  1    wreg      void 
  1285 ;; Registers used:
  1286 ;;		wreg, fsr0l, fsr0h, status,2, status,0, tblptrl, tblptrh, tblptru, prodl, prodh, cstack
  1287 ;; Tracked objects:
  1288 ;;		On entry : 0/0
  1289 ;;		On exit  : 0/0
  1290 ;;		Unchanged: 0/0
  1291 ;; Data sizes:     COMRAM   BANK0   BANK1   BANK2   BANK3   BANK4   BANK5
  1292 ;;      Params:         0       0       0       0       0       0       0
  1293 ;;      Locals:         2       0       0       0       0       0       0
  1294 ;;      Temps:          2       0       0       0       0       0       0
  1295 ;;      Totals:         4       0       0       0       0       0       0
  1296 ;;Total ram usage:        4 bytes
  1297 ;; Hardware stack levels used:    1
  1298 ;; Hardware stack levels required when called:    9
  1299 ;; This function calls:
  1300 ;;		_GPIO_WriteOnPin
  1301 ;;		_Global_interrupt_enable
  1302 ;;		_Home_screen_display
  1303 ;;		_KeyPad_Initialization
  1304 ;;		_KeyPad_getPressedKey
  1305 ;;		_LCD_ClearScreen
  1306 ;;		_LCD_DisplaNumber
  1307 ;;		_LCD_SendDataByte
  1308 ;;		_LCD_SendDataString
  1309 ;;		_LCD_SetDisplayPosition
  1310 ;;		_PWM_Start
  1311 ;;		_Timer0_enable
  1312 ;;		_Timer0_enable_overflow_interrupt
  1313 ;;		___lwdiv
  1314 ;;		___lwmod
  1315 ;;		___wmul
  1316 ;; This function is called by:
  1317 ;;		_main
  1318 ;; This function uses a non-reentrant model
  1319 ;;
  1320                           
  1321                           	psect	text3
  1322  0006E8                     __ptext3:
  1323                           	opt callstack 0
  1324  0006E8                     _User_insert_time_and_start_heating_function:
  1325                           	opt callstack 21
  1326  0006E8                     
  1327                           ;microwave.c: 261:     KeyPad_Initialization();
  1328  0006E8  EC6D  F014         	call	_KeyPad_Initialization	;wreg free
  1329                           
  1330                           ;microwave.c: 263:     g_u8keypad_button_val = KeyPad_getPressedKey();
  1331  0006EC  ECA6  F00F         	call	_KeyPad_getPressedKey	;wreg free
  1332  0006F0  6E4F               	movwf	_g_u8keypad_button_val^0,c
  1333  0006F2                     
  1334                           ;microwave.c: 265:     if(g_u8keypad_button_val >= 0 && g_u8keypad_button_val < 10)
  1335  0006F2  0E0A               	movlw	10
  1336  0006F4  604F               	cpfslt	_g_u8keypad_button_val^0,c
  1337  0006F6  EF7F  F003         	goto	u2971
  1338  0006FA  EF81  F003         	goto	u2970
  1339  0006FE                     u2971:
  1340  0006FE  EF58  F004         	goto	l4231
  1341  000702                     u2970:
  1342  000702  EF39  F004         	goto	l4229
  1343  000706                     l4179:
  1344                           
  1345                           ;microwave.c: 272:                 g_u8timer_arr[4] = g_u8keypad_button_val + 48u;
  1346  000706  504F               	movf	_g_u8keypad_button_val^0,w,c
  1347  000708  0F30               	addlw	48
  1348  00070A  6E55               	movwf	(_g_u8timer_arr+4)^0,c
  1349  00070C                     
  1350                           ;microwave.c: 274:                 g_u8time_digits++;
  1351  00070C  2A45               	incf	_g_u8time_digits^0,f,c
  1352  00070E                     
  1353                           ;microwave.c: 276:                 LCD_SetDisplayPosition(11,1);
  1354  00070E  0E01               	movlw	1
  1355  000710  6E0D               	movwf	LCD_SetDisplayPosition@a_u8position_Y^0,c
  1356  000712  0E0B               	movlw	11
  1357  000714  ECFA  F010         	call	_LCD_SetDisplayPosition
  1358  000718                     
  1359                           ;microwave.c: 277:                 LCD_SendDataString(g_u8timer_arr);
  1360  000718  0E51               	movlw	low _g_u8timer_arr
  1361  00071A  6E12               	movwf	LCD_SendDataString@a_u8data_ptr^0,c
  1362  00071C  0E00               	movlw	high _g_u8timer_arr
  1363  00071E  6E13               	movwf	(LCD_SendDataString@a_u8data_ptr+1)^0,c
  1364  000720  EC0F  F014         	call	_LCD_SendDataString	;wreg free
  1365  000724                     
  1366                           ;microwave.c: 279:                 g_u16MicrowaveTime = g_u8keypad_button_val;
  1367  000724  C04F  F040         	movff	_g_u8keypad_button_val,_g_u16MicrowaveTime
  1368  000728  6A41               	clrf	(_g_u16MicrowaveTime+1)^0,c
  1369                           
  1370                           ;microwave.c: 280:                 break;
  1371  00072A  EF4C  F005         	goto	l627
  1372  00072E                     l613:
  1373                           
  1374                           ;microwave.c: 283:                 g_u8timer_arr[3] = g_u8timer_arr[4];
  1375  00072E  C055  F054         	movff	_g_u8timer_arr+4,_g_u8timer_arr+3
  1376  000732                     
  1377                           ;microwave.c: 285:                 g_u8timer_arr[4] = g_u8keypad_button_val + 48u;
  1378  000732  504F               	movf	_g_u8keypad_button_val^0,w,c
  1379  000734  0F30               	addlw	48
  1380  000736  6E55               	movwf	(_g_u8timer_arr+4)^0,c
  1381  000738                     
  1382                           ;microwave.c: 287:                 g_u8time_digits++;
  1383  000738  2A45               	incf	_g_u8time_digits^0,f,c
  1384  00073A                     
  1385                           ;microwave.c: 289:                 LCD_SetDisplayPosition(14,1);
  1386  00073A  0E01               	movlw	1
  1387  00073C  6E0D               	movwf	LCD_SetDisplayPosition@a_u8position_Y^0,c
  1388  00073E  0E0E               	movlw	14
  1389  000740  ECFA  F010         	call	_LCD_SetDisplayPosition
  1390  000744                     
  1391                           ;microwave.c: 290:                 LCD_SendDataByte(g_u8timer_arr[3]);
  1392  000744  5054               	movf	(_g_u8timer_arr+3)^0,w,c
  1393  000746  EC9F  F00B         	call	_LCD_SendDataByte
  1394  00074A                     
  1395                           ;microwave.c: 291:                 LCD_SendDataByte(g_u8timer_arr[4]);
  1396  00074A  5055               	movf	(_g_u8timer_arr+4)^0,w,c
  1397  00074C  EC9F  F00B         	call	_LCD_SendDataByte
  1398  000750                     
  1399                           ;microwave.c: 293:                 g_u16MicrowaveTime = g_u16MicrowaveTime * 10 + g_u8ke
      +                          ypad_button_val;
  1400  000750  C040  F00E         	movff	_g_u16MicrowaveTime,___wmul@multiplier
  1401  000754  C041  F00F         	movff	_g_u16MicrowaveTime+1,___wmul@multiplier+1
  1402  000758  0E00               	movlw	0
  1403  00075A  6E11               	movwf	(___wmul@multiplicand+1)^0,c
  1404  00075C  0E0A               	movlw	10
  1405  00075E  6E10               	movwf	___wmul@multiplicand^0,c
  1406  000760  ECCC  F014         	call	___wmul	;wreg free
  1407  000764  504F               	movf	_g_u8keypad_button_val^0,w,c
  1408  000766  240E               	addwf	?___wmul^0,w,c
  1409  000768  6E40               	movwf	_g_u16MicrowaveTime^0,c
  1410  00076A  0E00               	movlw	0
  1411  00076C  200F               	addwfc	(?___wmul+1)^0,w,c
  1412  00076E  6E41               	movwf	(_g_u16MicrowaveTime+1)^0,c
  1413                           
  1414                           ;microwave.c: 294:                 break;
  1415  000770  EF4C  F005         	goto	l627
  1416  000774                     l614:
  1417                           
  1418                           ;microwave.c: 297:                 g_u8timer_arr[1] = g_u8timer_arr[3];
  1419  000774  C054  F052         	movff	_g_u8timer_arr+3,_g_u8timer_arr+1
  1420                           
  1421                           ;microwave.c: 299:                 g_u8timer_arr[3] = g_u8timer_arr[4];
  1422  000778  C055  F054         	movff	_g_u8timer_arr+4,_g_u8timer_arr+3
  1423  00077C                     
  1424                           ;microwave.c: 301:                 g_u8timer_arr[4] = g_u8keypad_button_val + 48u;
  1425  00077C  504F               	movf	_g_u8keypad_button_val^0,w,c
  1426  00077E  0F30               	addlw	48
  1427  000780  6E55               	movwf	(_g_u8timer_arr+4)^0,c
  1428  000782                     
  1429                           ;microwave.c: 303:                 g_u8time_digits++;
  1430  000782  2A45               	incf	_g_u8time_digits^0,f,c
  1431  000784                     
  1432                           ;microwave.c: 305:                 LCD_SetDisplayPosition(11,1);
  1433  000784  0E01               	movlw	1
  1434  000786  6E0D               	movwf	LCD_SetDisplayPosition@a_u8position_Y^0,c
  1435  000788  0E0B               	movlw	11
  1436  00078A  ECFA  F010         	call	_LCD_SetDisplayPosition
  1437  00078E                     
  1438                           ;microwave.c: 306:                 LCD_SendDataString(g_u8timer_arr);
  1439  00078E  0E51               	movlw	low _g_u8timer_arr
  1440  000790  6E12               	movwf	LCD_SendDataString@a_u8data_ptr^0,c
  1441  000792  0E00               	movlw	high _g_u8timer_arr
  1442  000794  6E13               	movwf	(LCD_SendDataString@a_u8data_ptr+1)^0,c
  1443  000796  EC0F  F014         	call	_LCD_SendDataString	;wreg free
  1444  00079A                     
  1445                           ;microwave.c: 308:                 g_u16MicrowaveTime = (g_u8timer_arr[1] - 48u) * 60 +
  1446  00079A  5052               	movf	(_g_u8timer_arr+1)^0,w,c
  1447  00079C  0D3C               	mullw	60
  1448  00079E  CFF3 F034          	movff	prodl,??_User_insert_time_and_start_heating_function
  1449  0007A2  CFF4 F035          	movff	prodh,??_User_insert_time_and_start_heating_function+1
  1450  0007A6  5054               	movf	(_g_u8timer_arr+3)^0,w,c
  1451  0007A8  0D0A               	mullw	10
  1452  0007AA  50F3               	movf	243,w,c
  1453  0007AC  2634               	addwf	??_User_insert_time_and_start_heating_function^0,f,c
  1454  0007AE  50F4               	movf	244,w,c
  1455  0007B0  2235               	addwfc	(??_User_insert_time_and_start_heating_function+1)^0,f,c
  1456  0007B2  504F               	movf	_g_u8keypad_button_val^0,w,c
  1457  0007B4  2634               	addwf	??_User_insert_time_and_start_heating_function^0,f,c
  1458  0007B6  0E00               	movlw	0
  1459  0007B8  2235               	addwfc	(??_User_insert_time_and_start_heating_function+1)^0,f,c
  1460  0007BA  0EE0               	movlw	224
  1461  0007BC  2434               	addwf	??_User_insert_time_and_start_heating_function^0,w,c
  1462  0007BE  6E40               	movwf	_g_u16MicrowaveTime^0,c
  1463  0007C0  0EF2               	movlw	242
  1464  0007C2  2035               	addwfc	(??_User_insert_time_and_start_heating_function+1)^0,w,c
  1465  0007C4  6E41               	movwf	(_g_u16MicrowaveTime+1)^0,c
  1466                           
  1467                           ;microwave.c: 310:                 break;
  1468  0007C6  EF4C  F005         	goto	l627
  1469  0007CA                     l4211:
  1470                           
  1471                           ;microwave.c: 313:                 if(!(g_u8timer_arr[1] == 57 && g_u8timer_arr[3] == 57
      +                           && g_u8timer_arr[4] >= 54 ))
  1472  0007CA  0E39               	movlw	57
  1473  0007CC  1852               	xorwf	(_g_u8timer_arr+1)^0,w,c
  1474  0007CE  A4D8               	btfss	status,2,c
  1475  0007D0  EFEC  F003         	goto	u2981
  1476  0007D4  EFEE  F003         	goto	u2980
  1477  0007D8                     u2981:
  1478  0007D8  EFFF  F003         	goto	l618
  1479  0007DC                     u2980:
  1480  0007DC  0E39               	movlw	57
  1481  0007DE  1854               	xorwf	(_g_u8timer_arr+3)^0,w,c
  1482  0007E0  A4D8               	btfss	status,2,c
  1483  0007E2  EFF5  F003         	goto	u2991
  1484  0007E6  EFF7  F003         	goto	u2990
  1485  0007EA                     u2991:
  1486  0007EA  EFFF  F003         	goto	l618
  1487  0007EE                     u2990:
  1488  0007EE  0E36               	movlw	54
  1489  0007F0  6055               	cpfslt	(_g_u8timer_arr+4)^0,c
  1490  0007F2  EFFD  F003         	goto	u3001
  1491  0007F6  EFFF  F003         	goto	u3000
  1492  0007FA                     u3001:
  1493  0007FA  EF56  F004         	goto	l612
  1494  0007FE                     u3000:
  1495  0007FE                     l618:
  1496                           
  1497                           ;microwave.c: 314:                 {;microwave.c: 316:                     g_u8timer_arr
      +                          [0] = g_u8timer_arr[1];
  1498  0007FE  C052  F051         	movff	_g_u8timer_arr+1,_g_u8timer_arr
  1499                           
  1500                           ;microwave.c: 318:                     g_u8timer_arr[1] = g_u8timer_arr[3];
  1501  000802  C054  F052         	movff	_g_u8timer_arr+3,_g_u8timer_arr+1
  1502                           
  1503                           ;microwave.c: 320:                     g_u8timer_arr[3] = g_u8timer_arr[4];
  1504  000806  C055  F054         	movff	_g_u8timer_arr+4,_g_u8timer_arr+3
  1505  00080A                     
  1506                           ;microwave.c: 322:                     g_u8timer_arr[4] = g_u8keypad_button_val + 48u;
  1507  00080A  504F               	movf	_g_u8keypad_button_val^0,w,c
  1508  00080C  0F30               	addlw	48
  1509  00080E  6E55               	movwf	(_g_u8timer_arr+4)^0,c
  1510  000810                     
  1511                           ;microwave.c: 324:                     g_u8time_digits++;
  1512  000810  2A45               	incf	_g_u8time_digits^0,f,c
  1513  000812                     
  1514                           ;microwave.c: 326:                     LCD_SetDisplayPosition(11,1);
  1515  000812  0E01               	movlw	1
  1516  000814  6E0D               	movwf	LCD_SetDisplayPosition@a_u8position_Y^0,c
  1517  000816  0E0B               	movlw	11
  1518  000818  ECFA  F010         	call	_LCD_SetDisplayPosition
  1519  00081C                     
  1520                           ;microwave.c: 327:                     LCD_SendDataString(g_u8timer_arr);
  1521  00081C  0E51               	movlw	low _g_u8timer_arr
  1522  00081E  6E12               	movwf	LCD_SendDataString@a_u8data_ptr^0,c
  1523  000820  0E00               	movlw	high _g_u8timer_arr
  1524  000822  6E13               	movwf	(LCD_SendDataString@a_u8data_ptr+1)^0,c
  1525  000824  EC0F  F014         	call	_LCD_SendDataString	;wreg free
  1526  000828                     
  1527                           ;microwave.c: 329:                     g_u16MicrowaveTime = (g_u8timer_arr[0] - 48u) * 6
      +                          00 +
  1528  000828  C051  F00E         	movff	_g_u8timer_arr,___wmul@multiplier
  1529  00082C  6A0F               	clrf	(___wmul@multiplier+1)^0,c
  1530  00082E  0E02               	movlw	2
  1531  000830  6E11               	movwf	(___wmul@multiplicand+1)^0,c
  1532  000832  0E58               	movlw	88
  1533  000834  6E10               	movwf	___wmul@multiplicand^0,c
  1534  000836  ECCC  F014         	call	___wmul	;wreg free
  1535  00083A  5052               	movf	(_g_u8timer_arr+1)^0,w,c
  1536  00083C  0D3C               	mullw	60
  1537  00083E  CFF3 F034          	movff	prodl,??_User_insert_time_and_start_heating_function
  1538  000842  CFF4 F035          	movff	prodh,??_User_insert_time_and_start_heating_function+1
  1539  000846  5054               	movf	(_g_u8timer_arr+3)^0,w,c
  1540  000848  0D0A               	mullw	10
  1541  00084A  50F3               	movf	243,w,c
  1542  00084C  2634               	addwf	??_User_insert_time_and_start_heating_function^0,f,c
  1543  00084E  50F4               	movf	244,w,c
  1544  000850  2235               	addwfc	(??_User_insert_time_and_start_heating_function+1)^0,f,c
  1545  000852  500E               	movf	?___wmul^0,w,c
  1546  000854  2634               	addwf	??_User_insert_time_and_start_heating_function^0,f,c
  1547  000856  500F               	movf	(?___wmul+1)^0,w,c
  1548  000858  2235               	addwfc	(??_User_insert_time_and_start_heating_function+1)^0,f,c
  1549  00085A  504F               	movf	_g_u8keypad_button_val^0,w,c
  1550  00085C  2634               	addwf	??_User_insert_time_and_start_heating_function^0,f,c
  1551  00085E  0E00               	movlw	0
  1552  000860  2235               	addwfc	(??_User_insert_time_and_start_heating_function+1)^0,f,c
  1553  000862  0E60               	movlw	96
  1554  000864  2434               	addwf	??_User_insert_time_and_start_heating_function^0,w,c
  1555  000866  6E40               	movwf	_g_u16MicrowaveTime^0,c
  1556  000868  0E82               	movlw	130
  1557  00086A  2035               	addwfc	(??_User_insert_time_and_start_heating_function+1)^0,w,c
  1558  00086C  6E41               	movwf	(_g_u16MicrowaveTime+1)^0,c
  1559                           
  1560                           ;microwave.c: 332:                 }
  1561  00086E  EF4C  F005         	goto	l627
  1562  000872                     l4229:
  1563  000872  5045               	movf	_g_u8time_digits^0,w,c
  1564  000874  6E34               	movwf	??_User_insert_time_and_start_heating_function^0,c
  1565  000876  6A35               	clrf	(??_User_insert_time_and_start_heating_function+1)^0,c
  1566                           
  1567                           ; Switch on 2 bytes has been partitioned into a top level switch of size 1, and 1 sub-sw
      +                          itches
  1568                           ; Switch size 1, requested type "simple"
  1569                           ; Number of cases is 1, Range of values is 0 to 0
  1570                           ; switch strategies available:
  1571                           ; Name         Instructions Cycles
  1572                           ; simple_byte            4     3 (average)
  1573                           ;	Chosen strategy is simple_byte
  1574  000878  5035               	movf	(??_User_insert_time_and_start_heating_function+1)^0,w,c
  1575  00087A  0A00               	xorlw	0	; case 0
  1576  00087C  B4D8               	btfsc	status,2,c
  1577  00087E  EF43  F004         	goto	l4595
  1578  000882  EF4C  F005         	goto	l627
  1579  000886                     l4595:
  1580                           
  1581                           ; Switch size 1, requested type "simple"
  1582                           ; Number of cases is 4, Range of values is 0 to 3
  1583                           ; switch strategies available:
  1584                           ; Name         Instructions Cycles
  1585                           ; simple_byte           13     7 (average)
  1586                           ;	Chosen strategy is simple_byte
  1587  000886  5034               	movf	??_User_insert_time_and_start_heating_function^0,w,c
  1588  000888  0A00               	xorlw	0	; case 0
  1589  00088A  B4D8               	btfsc	status,2,c
  1590  00088C  EF83  F003         	goto	l4179
  1591  000890  0A01               	xorlw	1	; case 1
  1592  000892  B4D8               	btfsc	status,2,c
  1593  000894  EF97  F003         	goto	l613
  1594  000898  0A03               	xorlw	3	; case 2
  1595  00089A  B4D8               	btfsc	status,2,c
  1596  00089C  EFBA  F003         	goto	l614
  1597  0008A0  0A01               	xorlw	1	; case 3
  1598  0008A2  B4D8               	btfsc	status,2,c
  1599  0008A4  EFE5  F003         	goto	l4211
  1600  0008A8  EF4C  F005         	goto	l627
  1601  0008AC                     l612:
  1602                           
  1603                           ;microwave.c: 342:     }
  1604  0008AC  EF4C  F005         	goto	l627
  1605  0008B0                     l4231:
  1606  0008B0  0E2A               	movlw	42
  1607  0008B2  184F               	xorwf	_g_u8keypad_button_val^0,w,c
  1608  0008B4  A4D8               	btfss	status,2,c
  1609  0008B6  EF5F  F004         	goto	u3011
  1610  0008BA  EF61  F004         	goto	u3010
  1611  0008BE                     u3011:
  1612  0008BE  EF31  F005         	goto	l4285
  1613  0008C2                     u3010:
  1614  0008C2                     
  1615                           ;microwave.c: 345:     {;microwave.c: 348:         if(g_u16MicrowaveTime != 0 && g_door_
      +                          state_t == DOOR_IS_CLOSED && g_inside_microwave == MICROWAVE_HAS_SOMETHING_INSIDE)
  1616  0008C2  5040               	movf	_g_u16MicrowaveTime^0,w,c
  1617  0008C4  1041               	iorwf	(_g_u16MicrowaveTime+1)^0,w,c
  1618  0008C6  B4D8               	btfsc	status,2,c
  1619  0008C8  EF68  F004         	goto	u3021
  1620  0008CC  EF6A  F004         	goto	u3020
  1621  0008D0                     u3021:
  1622  0008D0  EF4C  F005         	goto	l627
  1623  0008D4                     u3020:
  1624  0008D4  0450               	decf	_g_door_state_t^0,w,c
  1625  0008D6  A4D8               	btfss	status,2,c
  1626  0008D8  EF70  F004         	goto	u3031
  1627  0008DC  EF72  F004         	goto	u3030
  1628  0008E0                     u3031:
  1629  0008E0  EF4C  F005         	goto	l627
  1630  0008E4                     u3030:
  1631  0008E4  0446               	decf	_g_inside_microwave^0,w,c
  1632  0008E6  A4D8               	btfss	status,2,c
  1633  0008E8  EF78  F004         	goto	u3041
  1634  0008EC  EF7A  F004         	goto	u3040
  1635  0008F0                     u3041:
  1636  0008F0  EF4C  F005         	goto	l627
  1637  0008F4                     u3040:
  1638  0008F4                     
  1639                           ;microwave.c: 349:         {;microwave.c: 351:             g_u8time_digits = 4;
  1640  0008F4  0E04               	movlw	4
  1641  0008F6  6E45               	movwf	_g_u8time_digits^0,c
  1642                           
  1643                           ;microwave.c: 353:             g_system_state_var_t = SYSTEM_HEATING_STATE;
  1644  0008F8  0E01               	movlw	1
  1645  0008FA  6E48               	movwf	_g_system_state_var_t^0,c
  1646  0008FC                     
  1647                           ;microwave.c: 355:             LCD_ClearScreen();
  1648  0008FC  EC39  F015         	call	_LCD_ClearScreen	;wreg free
  1649  000900                     
  1650                           ;microwave.c: 356:             LCD_SendDataString("Timer:");
  1651  000900  0ECD               	movlw	low STR_5
  1652  000902  6E12               	movwf	LCD_SendDataString@a_u8data_ptr^0,c
  1653  000904  0E06               	movlw	high STR_5
  1654  000906  6E13               	movwf	(LCD_SendDataString@a_u8data_ptr+1)^0,c
  1655  000908  EC0F  F014         	call	_LCD_SendDataString	;wreg free
  1656  00090C                     
  1657                           ;microwave.c: 357:             LCD_SetDisplayPosition(11,1);
  1658  00090C  0E01               	movlw	1
  1659  00090E  6E0D               	movwf	LCD_SetDisplayPosition@a_u8position_Y^0,c
  1660  000910  0E0B               	movlw	11
  1661  000912  ECFA  F010         	call	_LCD_SetDisplayPosition
  1662  000916                     
  1663                           ;microwave.c: 358:             LCD_SendDataByte((g_u16MicrowaveTime / 600) + 48u);
  1664  000916  C040  F014         	movff	_g_u16MicrowaveTime,___lwdiv@dividend
  1665  00091A  C041  F015         	movff	_g_u16MicrowaveTime+1,___lwdiv@dividend+1
  1666  00091E  0E02               	movlw	2
  1667  000920  6E17               	movwf	(___lwdiv@divisor+1)^0,c
  1668  000922  0E58               	movlw	88
  1669  000924  6E16               	movwf	___lwdiv@divisor^0,c
  1670  000926  ECD0  F012         	call	___lwdiv	;wreg free
  1671  00092A  5014               	movf	?___lwdiv^0,w,c
  1672  00092C  0F30               	addlw	48
  1673  00092E  EC9F  F00B         	call	_LCD_SendDataByte
  1674  000932                     
  1675                           ;microwave.c: 359:             LCD_SendDataByte(((g_u16MicrowaveTime / 60) % 10) + 48u);
  1676  000932  0E00               	movlw	0
  1677  000934  6E17               	movwf	(___lwdiv@divisor+1)^0,c
  1678  000936  0E3C               	movlw	60
  1679  000938  6E16               	movwf	___lwdiv@divisor^0,c
  1680  00093A  C040  F014         	movff	_g_u16MicrowaveTime,___lwdiv@dividend
  1681  00093E  C041  F015         	movff	_g_u16MicrowaveTime+1,___lwdiv@dividend+1
  1682  000942  ECD0  F012         	call	___lwdiv	;wreg free
  1683  000946  C014  F01B         	movff	?___lwdiv,___lwmod@dividend
  1684  00094A  C015  F01C         	movff	?___lwdiv+1,___lwmod@dividend+1
  1685  00094E  0E00               	movlw	0
  1686  000950  6E1E               	movwf	(___lwmod@divisor+1)^0,c
  1687  000952  0E0A               	movlw	10
  1688  000954  6E1D               	movwf	___lwmod@divisor^0,c
  1689  000956  ECAD  F013         	call	___lwmod	;wreg free
  1690  00095A  501B               	movf	?___lwmod^0,w,c
  1691  00095C  0F30               	addlw	48
  1692  00095E  EC9F  F00B         	call	_LCD_SendDataByte
  1693  000962                     
  1694                           ;microwave.c: 360:             LCD_SendDataByte(':');
  1695  000962  0E3A               	movlw	58
  1696  000964  EC9F  F00B         	call	_LCD_SendDataByte
  1697  000968                     
  1698                           ;microwave.c: 361:             LCD_SendDataByte(((g_u16MicrowaveTime % 60) / 10) + 48u);
  1699  000968  0E00               	movlw	0
  1700  00096A  6E1E               	movwf	(___lwmod@divisor+1)^0,c
  1701  00096C  0E3C               	movlw	60
  1702  00096E  6E1D               	movwf	___lwmod@divisor^0,c
  1703  000970  C040  F01B         	movff	_g_u16MicrowaveTime,___lwmod@dividend
  1704  000974  C041  F01C         	movff	_g_u16MicrowaveTime+1,___lwmod@dividend+1
  1705  000978  ECAD  F013         	call	___lwmod	;wreg free
  1706  00097C  C01B  F014         	movff	?___lwmod,___lwdiv@dividend
  1707  000980  C01C  F015         	movff	?___lwmod+1,___lwdiv@dividend+1
  1708  000984  0E00               	movlw	0
  1709  000986  6E17               	movwf	(___lwdiv@divisor+1)^0,c
  1710  000988  0E0A               	movlw	10
  1711  00098A  6E16               	movwf	___lwdiv@divisor^0,c
  1712  00098C  ECD0  F012         	call	___lwdiv	;wreg free
  1713  000990  5014               	movf	?___lwdiv^0,w,c
  1714  000992  0F30               	addlw	48
  1715  000994  EC9F  F00B         	call	_LCD_SendDataByte
  1716  000998                     
  1717                           ;microwave.c: 362:             LCD_SendDataByte(((g_u16MicrowaveTime % 60) % 10) + 48u);
  1718  000998  0E00               	movlw	0
  1719  00099A  6E1E               	movwf	(___lwmod@divisor+1)^0,c
  1720  00099C  0E3C               	movlw	60
  1721  00099E  6E1D               	movwf	___lwmod@divisor^0,c
  1722  0009A0  C040  F01B         	movff	_g_u16MicrowaveTime,___lwmod@dividend
  1723  0009A4  C041  F01C         	movff	_g_u16MicrowaveTime+1,___lwmod@dividend+1
  1724  0009A8  ECAD  F013         	call	___lwmod	;wreg free
  1725  0009AC  C01B  F036         	movff	?___lwmod,_User_insert_time_and_start_heating_function$1548
  1726  0009B0  C01C  F037         	movff	?___lwmod+1,_User_insert_time_and_start_heating_function$1548+1
  1727  0009B4                     
  1728                           ;microwave.c: 362:             LCD_SendDataByte(((g_u16MicrowaveTime % 60) % 10) + 48u);
  1729  0009B4  C036  F01B         	movff	_User_insert_time_and_start_heating_function$1548,___lwmod@dividend
  1730  0009B8  C037  F01C         	movff	_User_insert_time_and_start_heating_function$1548+1,___lwmod@dividend+1
  1731  0009BC  0E00               	movlw	0
  1732  0009BE  6E1E               	movwf	(___lwmod@divisor+1)^0,c
  1733  0009C0  0E0A               	movlw	10
  1734  0009C2  6E1D               	movwf	___lwmod@divisor^0,c
  1735  0009C4  ECAD  F013         	call	___lwmod	;wreg free
  1736  0009C8  501B               	movf	?___lwmod^0,w,c
  1737  0009CA  0F30               	addlw	48
  1738  0009CC  EC9F  F00B         	call	_LCD_SendDataByte
  1739  0009D0                     
  1740                           ;microwave.c: 364:             LCD_SetDisplayPosition(0 , 2);
  1741  0009D0  0E02               	movlw	2
  1742  0009D2  6E0D               	movwf	LCD_SetDisplayPosition@a_u8position_Y^0,c
  1743  0009D4  0E00               	movlw	0
  1744  0009D6  ECFA  F010         	call	_LCD_SetDisplayPosition
  1745  0009DA                     
  1746                           ;microwave.c: 365:             LCD_SendDataString("Temperature:");
  1747  0009DA  0E88               	movlw	low STR_6
  1748  0009DC  6E12               	movwf	LCD_SendDataString@a_u8data_ptr^0,c
  1749  0009DE  0E06               	movlw	high STR_6
  1750  0009E0  6E13               	movwf	(LCD_SendDataString@a_u8data_ptr+1)^0,c
  1751  0009E2  EC0F  F014         	call	_LCD_SendDataString	;wreg free
  1752  0009E6                     
  1753                           ;microwave.c: 366:             LCD_SetDisplayPosition(14,2);
  1754  0009E6  0E02               	movlw	2
  1755  0009E8  6E0D               	movwf	LCD_SetDisplayPosition@a_u8position_Y^0,c
  1756  0009EA  0E0E               	movlw	14
  1757  0009EC  ECFA  F010         	call	_LCD_SetDisplayPosition
  1758  0009F0                     
  1759                           ;microwave.c: 367:             LCD_DisplaNumber(g_u8temperature + 27u);
  1760  0009F0  5044               	movf	_g_u8temperature^0,w,c
  1761  0009F2  6E34               	movwf	??_User_insert_time_and_start_heating_function^0,c
  1762  0009F4  6A35               	clrf	(??_User_insert_time_and_start_heating_function+1)^0,c
  1763  0009F6  0E1B               	movlw	27
  1764  0009F8  2634               	addwf	??_User_insert_time_and_start_heating_function^0,f,c
  1765  0009FA  0E00               	movlw	0
  1766  0009FC  2235               	addwfc	(??_User_insert_time_and_start_heating_function+1)^0,f,c
  1767  0009FE  C034  F01F         	movff	??_User_insert_time_and_start_heating_function,LCD_DisplaNumber@a_s32number
  1768  000A02  C035  F020         	movff	??_User_insert_time_and_start_heating_function+1,LCD_DisplaNumber@a_s32number+1
  1769  000A06  6A21               	clrf	(LCD_DisplaNumber@a_s32number+2)^0,c
  1770  000A08  6A22               	clrf	(LCD_DisplaNumber@a_s32number+3)^0,c
  1771  000A0A  ECDE  F007         	call	_LCD_DisplaNumber	;wreg free
  1772  000A0E                     
  1773                           ;microwave.c: 368:             LCD_SetDisplayPosition(0,3);
  1774  000A0E  0E03               	movlw	3
  1775  000A10  6E0D               	movwf	LCD_SetDisplayPosition@a_u8position_Y^0,c
  1776  000A12  0E00               	movlw	0
  1777  000A14  ECFA  F010         	call	_LCD_SetDisplayPosition
  1778  000A18                     
  1779                           ;microwave.c: 370:             LCD_SendDataString("Heating Process ");
  1780  000A18  0E01               	movlw	low STR_7
  1781  000A1A  6E12               	movwf	LCD_SendDataString@a_u8data_ptr^0,c
  1782  000A1C  0E06               	movlw	high STR_7
  1783  000A1E  6E13               	movwf	(LCD_SendDataString@a_u8data_ptr+1)^0,c
  1784  000A20  EC0F  F014         	call	_LCD_SendDataString	;wreg free
  1785  000A24                     
  1786                           ;microwave.c: 371:             LCD_SendDataString("#:Pause ##:Stop");
  1787  000A24  0E78               	movlw	low STR_8
  1788  000A26  6E12               	movwf	LCD_SendDataString@a_u8data_ptr^0,c
  1789  000A28  0E06               	movlw	high STR_8
  1790  000A2A  6E13               	movwf	(LCD_SendDataString@a_u8data_ptr+1)^0,c
  1791  000A2C  EC0F  F014         	call	_LCD_SendDataString	;wreg free
  1792  000A30                     
  1793                           ;microwave.c: 373:             PWM_Start(PWM_CHANNEL_1);
  1794  000A30  0E00               	movlw	0
  1795  000A32  ECF0  F014         	call	_PWM_Start
  1796  000A36                     
  1797                           ;microwave.c: 375:             GPIO_WriteOnPin(2u , 5u , 1u);
  1798  000A36  0E05               	movlw	5
  1799  000A38  6E06               	movwf	GPIO_WriteOnPin@a_u8pin^0,c
  1800  000A3A  0E01               	movlw	1
  1801  000A3C  6E07               	movwf	GPIO_WriteOnPin@a_u8value^0,c
  1802  000A3E  0E02               	movlw	2
  1803  000A40  EC9A  F006         	call	_GPIO_WriteOnPin
  1804  000A44                     
  1805                           ;microwave.c: 377:             GPIO_WriteOnPin(1u , 7u , 1u);
  1806  000A44  0E07               	movlw	7
  1807  000A46  6E06               	movwf	GPIO_WriteOnPin@a_u8pin^0,c
  1808  000A48  0E01               	movlw	1
  1809  000A4A  6E07               	movwf	GPIO_WriteOnPin@a_u8value^0,c
  1810  000A4C  0E01               	movlw	1
  1811  000A4E  EC9A  F006         	call	_GPIO_WriteOnPin
  1812  000A52                     
  1813                           ;microwave.c: 380:             Global_interrupt_enable();
  1814  000A52  EC4F  F015         	call	_Global_interrupt_enable	;wreg free
  1815  000A56                     
  1816                           ;microwave.c: 381:             Timer0_enable_overflow_interrupt();
  1817  000A56  EC4B  F015         	call	_Timer0_enable_overflow_interrupt	;wreg free
  1818  000A5A                     
  1819                           ;microwave.c: 382:             Timer0_enable();
  1820  000A5A  EC4D  F015         	call	_Timer0_enable	;wreg free
  1821                           
  1822                           ;microwave.c: 383:         }
  1823  000A5E  EF4C  F005         	goto	l627
  1824  000A62                     l4285:
  1825  000A62  0E23               	movlw	35
  1826  000A64  184F               	xorwf	_g_u8keypad_button_val^0,w,c
  1827  000A66  A4D8               	btfss	status,2,c
  1828  000A68  EF38  F005         	goto	u3051
  1829  000A6C  EF3A  F005         	goto	u3050
  1830  000A70                     u3051:
  1831  000A70  EF4C  F005         	goto	l627
  1832  000A74                     u3050:
  1833  000A74                     
  1834                           ;microwave.c: 391:     {;microwave.c: 394:         g_u8old_temp_reading = 100;
  1835  000A74  0E64               	movlw	100
  1836  000A76  6E4E               	movwf	_g_u8old_temp_reading^0,c
  1837  000A78                     
  1838                           ;microwave.c: 396:         Home_screen_display();
  1839  000A78  EC04  F010         	call	_Home_screen_display	;wreg free
  1840  000A7C                     
  1841                           ;microwave.c: 398:         g_u8timer_arr[0] = 48u;
  1842  000A7C  0E30               	movlw	48
  1843  000A7E  6E51               	movwf	_g_u8timer_arr^0,c
  1844  000A80                     
  1845                           ;microwave.c: 399:         g_u8timer_arr[1] = 48u;
  1846  000A80  0E30               	movlw	48
  1847  000A82  6E52               	movwf	(_g_u8timer_arr+1)^0,c
  1848  000A84                     
  1849                           ;microwave.c: 400:         g_u8timer_arr[3] = 48u;
  1850  000A84  0E30               	movlw	48
  1851  000A86  6E54               	movwf	(_g_u8timer_arr+3)^0,c
  1852  000A88                     
  1853                           ;microwave.c: 401:         g_u8timer_arr[4] = 48u;
  1854  000A88  0E30               	movlw	48
  1855  000A8A  6E55               	movwf	(_g_u8timer_arr+4)^0,c
  1856  000A8C                     
  1857                           ;microwave.c: 403:         g_u8time_digits = 0;
  1858  000A8C  0E00               	movlw	0
  1859  000A8E  6E45               	movwf	_g_u8time_digits^0,c
  1860  000A90                     
  1861                           ;microwave.c: 405:         g_u16MicrowaveTime = 0;
  1862  000A90  0E00               	movlw	0
  1863  000A92  6E41               	movwf	(_g_u16MicrowaveTime+1)^0,c
  1864  000A94  0E00               	movlw	0
  1865  000A96  6E40               	movwf	_g_u16MicrowaveTime^0,c
  1866  000A98                     l627:
  1867  000A98  0012               	return		;funcret
  1868  000A9A                     __end_of_User_insert_time_and_start_heating_function:
  1869                           	opt callstack 0
  1870                           
  1871 ;; *************** function _Timer0_enable_overflow_interrupt *****************
  1872 ;; Defined at:
  1873 ;;		line 42 in file "interrupt.c"
  1874 ;; Parameters:    Size  Location     Type
  1875 ;;		None
  1876 ;; Auto vars:     Size  Location     Type
  1877 ;;		None
  1878 ;; Return value:  Size  Location     Type
  1879 ;;                  1    wreg      void 
  1880 ;; Registers used:
  1881 ;;		status,2, status,0
  1882 ;; Tracked objects:
  1883 ;;		On entry : 0/0
  1884 ;;		On exit  : 0/0
  1885 ;;		Unchanged: 0/0
  1886 ;; Data sizes:     COMRAM   BANK0   BANK1   BANK2   BANK3   BANK4   BANK5
  1887 ;;      Params:         0       0       0       0       0       0       0
  1888 ;;      Locals:         0       0       0       0       0       0       0
  1889 ;;      Temps:          0       0       0       0       0       0       0
  1890 ;;      Totals:         0       0       0       0       0       0       0
  1891 ;;Total ram usage:        0 bytes
  1892 ;; Hardware stack levels used:    1
  1893 ;; Hardware stack levels required when called:    3
  1894 ;; This function calls:
  1895 ;;		Nothing
  1896 ;; This function is called by:
  1897 ;;		_User_insert_time_and_start_heating_function
  1898 ;; This function uses a non-reentrant model
  1899 ;;
  1900                           
  1901                           	psect	text4
  1902  002A96                     __ptext4:
  1903                           	opt callstack 0
  1904  002A96                     _Timer0_enable_overflow_interrupt:
  1905                           	opt callstack 26
  1906  002A96                     
  1907                           ;interrupt.c: 44:     *(volatile uint8*)0xFF2 |= 1 << 5u;
  1908  002A96  8AF2               	bsf	242,5,c	;volatile
  1909  002A98  0012               	return		;funcret
  1910  002A9A                     __end_of_Timer0_enable_overflow_interrupt:
  1911                           	opt callstack 0
  1912                           
  1913 ;; *************** function _Timer0_enable *****************
  1914 ;; Defined at:
  1915 ;;		line 91 in file "timers.c"
  1916 ;; Parameters:    Size  Location     Type
  1917 ;;		None
  1918 ;; Auto vars:     Size  Location     Type
  1919 ;;		None
  1920 ;; Return value:  Size  Location     Type
  1921 ;;                  1    wreg      void 
  1922 ;; Registers used:
  1923 ;;		status,2, status,0
  1924 ;; Tracked objects:
  1925 ;;		On entry : 0/0
  1926 ;;		On exit  : 0/0
  1927 ;;		Unchanged: 0/0
  1928 ;; Data sizes:     COMRAM   BANK0   BANK1   BANK2   BANK3   BANK4   BANK5
  1929 ;;      Params:         0       0       0       0       0       0       0
  1930 ;;      Locals:         0       0       0       0       0       0       0
  1931 ;;      Temps:          0       0       0       0       0       0       0
  1932 ;;      Totals:         0       0       0       0       0       0       0
  1933 ;;Total ram usage:        0 bytes
  1934 ;; Hardware stack levels used:    1
  1935 ;; Hardware stack levels required when called:    3
  1936 ;; This function calls:
  1937 ;;		Nothing
  1938 ;; This function is called by:
  1939 ;;		_User_insert_time_and_start_heating_function
  1940 ;; This function uses a non-reentrant model
  1941 ;;
  1942                           
  1943                           	psect	text5
  1944  002A9A                     __ptext5:
  1945                           	opt callstack 0
  1946  002A9A                     _Timer0_enable:
  1947                           	opt callstack 26
  1948  002A9A                     
  1949                           ;timers.c: 93:     *(volatile uint8*)0xFD5 |= 1 << 7u;
  1950  002A9A  8ED5               	bsf	213,7,c	;volatile
  1951  002A9C  0012               	return		;funcret
  1952  002A9E                     __end_of_Timer0_enable:
  1953                           	opt callstack 0
  1954                           
  1955 ;; *************** function _PWM_Start *****************
  1956 ;; Defined at:
  1957 ;;		line 79 in file "PWM.c"
  1958 ;; Parameters:    Size  Location     Type
  1959 ;;  a_PWM_channe    1    wreg     enum E10
  1960 ;; Auto vars:     Size  Location     Type
  1961 ;;  a_PWM_channe    1    5[COMRAM] enum E10
  1962 ;; Return value:  Size  Location     Type
  1963 ;;                  1    wreg      void 
  1964 ;; Registers used:
  1965 ;;		wreg, status,2, status,0
  1966 ;; Tracked objects:
  1967 ;;		On entry : 0/0
  1968 ;;		On exit  : 0/0
  1969 ;;		Unchanged: 0/0
  1970 ;; Data sizes:     COMRAM   BANK0   BANK1   BANK2   BANK3   BANK4   BANK5
  1971 ;;      Params:         0       0       0       0       0       0       0
  1972 ;;      Locals:         1       0       0       0       0       0       0
  1973 ;;      Temps:          0       0       0       0       0       0       0
  1974 ;;      Totals:         1       0       0       0       0       0       0
  1975 ;;Total ram usage:        1 bytes
  1976 ;; Hardware stack levels used:    1
  1977 ;; Hardware stack levels required when called:    3
  1978 ;; This function calls:
  1979 ;;		Nothing
  1980 ;; This function is called by:
  1981 ;;		_User_insert_time_and_start_heating_function
  1982 ;; This function uses a non-reentrant model
  1983 ;;
  1984                           
  1985                           	psect	text6
  1986  0029E0                     __ptext6:
  1987                           	opt callstack 0
  1988  0029E0                     _PWM_Start:
  1989                           	opt callstack 26
  1990                           
  1991                           ;incstack = 0
  1992                           ;PWM_Start@a_PWM_channel_t stored from wreg
  1993  0029E0  6E06               	movwf	PWM_Start@a_PWM_channel_t^0,c
  1994  0029E2                     
  1995                           ;PWM.c: 79: void PWM_Start(EnumPWM_channel_t a_PWM_channel_t);PWM.c: 80: {;PWM.c: 82:   
      +                            if(a_PWM_channel_t == PWM_CHANNEL_1)
  1996  0029E2  5006               	movf	PWM_Start@a_PWM_channel_t^0,w,c
  1997  0029E4  A4D8               	btfss	status,2,c
  1998  0029E6  EFF7  F014         	goto	u2731
  1999  0029EA  EFF9  F014         	goto	u2730
  2000  0029EE                     u2731:
  2001  0029EE  EFFD  F014         	goto	l3817
  2002  0029F2                     u2730:
  2003  0029F2                     
  2004                           ;PWM.c: 83:     {;PWM.c: 85:         *(volatile uint8*)0xFBD |= 1 << 3u;
  2005  0029F2  86BD               	bsf	189,3,c	;volatile
  2006                           
  2007                           ;PWM.c: 86:         *(volatile uint8*)0xFBD |= 1 << 2u;
  2008  0029F4  84BD               	bsf	189,2,c	;volatile
  2009                           
  2010                           ;PWM.c: 87:     }
  2011  0029F6  EFFF  F014         	goto	l682
  2012  0029FA                     l3817:
  2013                           
  2014                           ;PWM.c: 89:     {;PWM.c: 91:         *(volatile uint8*)0xFBA |= 1 << 3u;
  2015  0029FA  86BA               	bsf	186,3,c	;volatile
  2016                           
  2017                           ;PWM.c: 92:         *(volatile uint8*)0xFBA |= 1 << 2u;
  2018  0029FC  84BA               	bsf	186,2,c	;volatile
  2019  0029FE                     l682:
  2020  0029FE  0012               	return		;funcret
  2021  002A00                     __end_of_PWM_Start:
  2022                           	opt callstack 0
  2023                           
  2024 ;; *************** function _Global_interrupt_enable *****************
  2025 ;; Defined at:
  2026 ;;		line 1266 in file "interrupt.c"
  2027 ;; Parameters:    Size  Location     Type
  2028 ;;		None
  2029 ;; Auto vars:     Size  Location     Type
  2030 ;;		None
  2031 ;; Return value:  Size  Location     Type
  2032 ;;                  1    wreg      void 
  2033 ;; Registers used:
  2034 ;;		status,2, status,0
  2035 ;; Tracked objects:
  2036 ;;		On entry : 0/0
  2037 ;;		On exit  : 0/0
  2038 ;;		Unchanged: 0/0
  2039 ;; Data sizes:     COMRAM   BANK0   BANK1   BANK2   BANK3   BANK4   BANK5
  2040 ;;      Params:         0       0       0       0       0       0       0
  2041 ;;      Locals:         0       0       0       0       0       0       0
  2042 ;;      Temps:          0       0       0       0       0       0       0
  2043 ;;      Totals:         0       0       0       0       0       0       0
  2044 ;;Total ram usage:        0 bytes
  2045 ;; Hardware stack levels used:    1
  2046 ;; Hardware stack levels required when called:    3
  2047 ;; This function calls:
  2048 ;;		Nothing
  2049 ;; This function is called by:
  2050 ;;		_User_insert_time_and_start_heating_function
  2051 ;; This function uses a non-reentrant model
  2052 ;;
  2053                           
  2054                           	psect	text7
  2055  002A9E                     __ptext7:
  2056                           	opt callstack 0
  2057  002A9E                     _Global_interrupt_enable:
  2058                           	opt callstack 26
  2059  002A9E                     
  2060                           ;interrupt.c: 1268:     *(volatile uint8*)0xFF2 |= 1 << 7u;
  2061  002A9E  8EF2               	bsf	242,7,c	;volatile
  2062  002AA0  0012               	return		;funcret
  2063  002AA2                     __end_of_Global_interrupt_enable:
  2064                           	opt callstack 0
  2065                           
  2066 ;; *************** function _Timer0_set_callback_function *****************
  2067 ;; Defined at:
  2068 ;;		line 74 in file "interrupt.c"
  2069 ;; Parameters:    Size  Location     Type
  2070 ;;  a_function_p    2    5[COMRAM] PTR FTN()void 
  2071 ;;		 -> TIMER0_ISR(1), 
  2072 ;; Auto vars:     Size  Location     Type
  2073 ;;		None
  2074 ;; Return value:  Size  Location     Type
  2075 ;;                  1    wreg      void 
  2076 ;; Registers used:
  2077 ;;		wreg, status,2, status,0
  2078 ;; Tracked objects:
  2079 ;;		On entry : 0/0
  2080 ;;		On exit  : 0/0
  2081 ;;		Unchanged: 0/0
  2082 ;; Data sizes:     COMRAM   BANK0   BANK1   BANK2   BANK3   BANK4   BANK5
  2083 ;;      Params:         2       0       0       0       0       0       0
  2084 ;;      Locals:         0       0       0       0       0       0       0
  2085 ;;      Temps:          0       0       0       0       0       0       0
  2086 ;;      Totals:         2       0       0       0       0       0       0
  2087 ;;Total ram usage:        2 bytes
  2088 ;; Hardware stack levels used:    1
  2089 ;; Hardware stack levels required when called:    3
  2090 ;; This function calls:
  2091 ;;		Nothing
  2092 ;; This function is called by:
  2093 ;;		_main
  2094 ;; This function uses a non-reentrant model
  2095 ;;
  2096                           
  2097                           	psect	text8
  2098  002A7E                     __ptext8:
  2099                           	opt callstack 0
  2100  002A7E                     _Timer0_set_callback_function:
  2101                           	opt callstack 27
  2102  002A7E                     
  2103                           ;interrupt.c: 74: void Timer0_set_callback_function(void(*a_function_ptr)(void));interru
      +                          pt.c: 75: {;interrupt.c: 77:     timer0_callback_ptr = a_function_ptr;
  2104  002A7E  C006  F042         	movff	Timer0_set_callback_function@a_function_ptr,_timer0_callback_ptr
  2105  002A82  C007  F043         	movff	Timer0_set_callback_function@a_function_ptr+1,_timer0_callback_ptr+1
  2106  002A86  0012               	return		;funcret
  2107  002A88                     __end_of_Timer0_set_callback_function:
  2108                           	opt callstack 0
  2109                           
  2110 ;; *************** function _Timer0_Initialization *****************
  2111 ;; Defined at:
  2112 ;;		line 39 in file "timers.c"
  2113 ;; Parameters:    Size  Location     Type
  2114 ;;		None
  2115 ;; Auto vars:     Size  Location     Type
  2116 ;;		None
  2117 ;; Return value:  Size  Location     Type
  2118 ;;                  1    wreg      void 
  2119 ;; Registers used:
  2120 ;;		wreg, status,2, status,0
  2121 ;; Tracked objects:
  2122 ;;		On entry : 0/0
  2123 ;;		On exit  : 0/0
  2124 ;;		Unchanged: 0/0
  2125 ;; Data sizes:     COMRAM   BANK0   BANK1   BANK2   BANK3   BANK4   BANK5
  2126 ;;      Params:         0       0       0       0       0       0       0
  2127 ;;      Locals:         0       0       0       0       0       0       0
  2128 ;;      Temps:          0       0       0       0       0       0       0
  2129 ;;      Totals:         0       0       0       0       0       0       0
  2130 ;;Total ram usage:        0 bytes
  2131 ;; Hardware stack levels used:    1
  2132 ;; Hardware stack levels required when called:    3
  2133 ;; This function calls:
  2134 ;;		Nothing
  2135 ;; This function is called by:
  2136 ;;		_main
  2137 ;; This function uses a non-reentrant model
  2138 ;;
  2139                           
  2140                           	psect	text9
  2141  002686                     __ptext9:
  2142                           	opt callstack 0
  2143  002686                     _Timer0_Initialization:
  2144                           	opt callstack 27
  2145  002686                     
  2146                           ;timers.c: 41:     if(Timer0_config_t.timer_size_t == TIMER_8BIT_SIZE)
  2147  002686  504B               	movf	(_Timer0_config_t+1)^0,w,c
  2148  002688  A4D8               	btfss	status,2,c
  2149  00268A  EF49  F013         	goto	u2881
  2150  00268E  EF4B  F013         	goto	u2880
  2151  002692                     u2881:
  2152  002692  EF4E  F013         	goto	l4103
  2153  002696                     u2880:
  2154  002696                     
  2155                           ;timers.c: 42:     {;timers.c: 43:         *(volatile uint8*)0xFD5 |= 1 << 6u;
  2156  002696  8CD5               	bsf	213,6,c	;volatile
  2157                           
  2158                           ;timers.c: 44:     }
  2159  002698  EF4F  F013         	goto	l4105
  2160  00269C                     l4103:
  2161                           
  2162                           ;timers.c: 46:     {;timers.c: 47:         *(volatile uint8*)0xFD5 &= ~(1 << 6u);
  2163  00269C  9CD5               	bcf	213,6,c	;volatile
  2164  00269E                     l4105:
  2165                           
  2166                           ;timers.c: 50:     if(Timer0_config_t.timer_clock_source_t == TIMER_INTERNAL_CLOCK)
  2167  00269E  504C               	movf	(_Timer0_config_t+2)^0,w,c
  2168  0026A0  A4D8               	btfss	status,2,c
  2169  0026A2  EF55  F013         	goto	u2891
  2170  0026A6  EF57  F013         	goto	u2890
  2171  0026AA                     u2891:
  2172  0026AA  EF5A  F013         	goto	l4109
  2173  0026AE                     u2890:
  2174  0026AE                     
  2175                           ;timers.c: 51:     {;timers.c: 52:         *(volatile uint8*)0xFD5 &= ~(1 << 5u);
  2176  0026AE  9AD5               	bcf	213,5,c	;volatile
  2177                           
  2178                           ;timers.c: 53:     }
  2179  0026B0  EF5B  F013         	goto	l4111
  2180  0026B4                     l4109:
  2181                           
  2182                           ;timers.c: 55:     {;timers.c: 56:         *(volatile uint8*)0xFD5 |= 1 << 5u;
  2183  0026B4  8AD5               	bsf	213,5,c	;volatile
  2184  0026B6                     l4111:
  2185                           
  2186                           ;timers.c: 59:     if(Timer0_config_t.timer_clock_source_t != TIMER_INTERNAL_CLOCK)
  2187  0026B6  504C               	movf	(_Timer0_config_t+2)^0,w,c
  2188  0026B8  B4D8               	btfsc	status,2,c
  2189  0026BA  EF61  F013         	goto	u2901
  2190  0026BE  EF63  F013         	goto	u2900
  2191  0026C2                     u2901:
  2192  0026C2  EF67  F013         	goto	l4117
  2193  0026C6                     u2900:
  2194  0026C6                     
  2195                           ;timers.c: 60:     {;timers.c: 61:         *(volatile uint8*)0xFD5 &= 0xEF;
  2196  0026C6  98D5               	bcf	213,4,c	;volatile
  2197  0026C8                     
  2198                           ;timers.c: 62:         *(volatile uint8*)0xFD5 |= Timer0_config_t.timer_edge_type_on_TCK
      +                          I_t << 4;
  2199  0026C8  384D               	swapf	(_Timer0_config_t+3)^0,w,c
  2200  0026CA  0BF0               	andlw	240
  2201  0026CC  12D5               	iorwf	213,f,c	;volatile
  2202  0026CE                     l4117:
  2203                           
  2204                           ;timers.c: 69:     if(Timer0_config_t.timer_prescaler_t != TIMER0_NO_PRESCALER)
  2205  0026CE  0E08               	movlw	8
  2206  0026D0  184A               	xorwf	_Timer0_config_t^0,w,c
  2207  0026D2  B4D8               	btfsc	status,2,c
  2208  0026D4  EF6E  F013         	goto	u2911
  2209  0026D8  EF70  F013         	goto	u2910
  2210  0026DC                     u2911:
  2211  0026DC  EF76  F013         	goto	l4121
  2212  0026E0                     u2910:
  2213  0026E0                     
  2214                           ;timers.c: 70:     {;timers.c: 71:         *(volatile uint8*)0xFD5 &= 0xF0;
  2215  0026E0  0EF0               	movlw	240
  2216  0026E2  16D5               	andwf	213,f,c	;volatile
  2217                           
  2218                           ;timers.c: 72:         *(volatile uint8*)0xFD5 |= Timer0_config_t.timer_prescaler_t;
  2219  0026E4  504A               	movf	_Timer0_config_t^0,w,c
  2220  0026E6  12D5               	iorwf	213,f,c	;volatile
  2221                           
  2222                           ;timers.c: 73:     }
  2223  0026E8  EF77  F013         	goto	l730
  2224  0026EC                     l4121:
  2225                           
  2226                           ;timers.c: 75:     {;timers.c: 76:         *(volatile uint8*)0xFD5 |= 0x08;
  2227  0026EC  86D5               	bsf	213,3,c	;volatile
  2228  0026EE                     l730:
  2229  0026EE  0012               	return		;funcret
  2230  0026F0                     __end_of_Timer0_Initialization:
  2231                           	opt callstack 0
  2232                           
  2233 ;; *************** function _Set_and_Display_desired_temp *****************
  2234 ;; Defined at:
  2235 ;;		line 134 in file "microwave.c"
  2236 ;; Parameters:    Size  Location     Type
  2237 ;;		None
  2238 ;; Auto vars:     Size  Location     Type
  2239 ;;		None
  2240 ;; Return value:  Size  Location     Type
  2241 ;;                  1    wreg      void 
  2242 ;; Registers used:
  2243 ;;		wreg, status,2, status,0, prodl, prodh, cstack
  2244 ;; Tracked objects:
  2245 ;;		On entry : 0/0
  2246 ;;		On exit  : 0/0
  2247 ;;		Unchanged: 0/0
  2248 ;; Data sizes:     COMRAM   BANK0   BANK1   BANK2   BANK3   BANK4   BANK5
  2249 ;;      Params:         0       0       0       0       0       0       0
  2250 ;;      Locals:         0       0       0       0       0       0       0
  2251 ;;      Temps:          2       0       0       0       0       0       0
  2252 ;;      Totals:         2       0       0       0       0       0       0
  2253 ;;Total ram usage:        2 bytes
  2254 ;; Hardware stack levels used:    1
  2255 ;; Hardware stack levels required when called:    8
  2256 ;; This function calls:
  2257 ;;		_ADC_Read_value
  2258 ;;		_ADC_Start_conversion
  2259 ;;		_LCD_DisplaNumber
  2260 ;;		_LCD_SetDisplayPosition
  2261 ;;		_PWM_DutyCycle
  2262 ;;		___lwdiv
  2263 ;;		___wmul
  2264 ;; This function is called by:
  2265 ;;		_main
  2266 ;; This function uses a non-reentrant model
  2267 ;;
  2268                           
  2269                           	psect	text10
  2270  00242E                     __ptext10:
  2271                           	opt callstack 0
  2272  00242E                     _Set_and_Display_desired_temp:
  2273                           	opt callstack 22
  2274  00242E                     
  2275                           ;microwave.c: 137:     ADC_Start_conversion();
  2276  00242E  EC53  F015         	call	_ADC_Start_conversion	;wreg free
  2277  002432                     
  2278                           ;microwave.c: 139:     g_u8temperature = ADC_Read_value() * 50u / 1023;
  2279  002432  EC96  F012         	call	_ADC_Read_value	;wreg free
  2280  002436  C006  F00E         	movff	?_ADC_Read_value,___wmul@multiplier
  2281  00243A  C007  F00F         	movff	?_ADC_Read_value+1,___wmul@multiplier+1
  2282  00243E  0E00               	movlw	0
  2283  002440  6E11               	movwf	(___wmul@multiplicand+1)^0,c
  2284  002442  0E32               	movlw	50
  2285  002444  6E10               	movwf	___wmul@multiplicand^0,c
  2286  002446  ECCC  F014         	call	___wmul	;wreg free
  2287  00244A  C00E  F014         	movff	?___wmul,___lwdiv@dividend
  2288  00244E  C00F  F015         	movff	?___wmul+1,___lwdiv@dividend+1
  2289  002452  0E03               	movlw	3
  2290  002454  6E17               	movwf	(___lwdiv@divisor+1)^0,c
  2291  002456  6816               	setf	___lwdiv@divisor^0,c
  2292  002458  ECD0  F012         	call	___lwdiv	;wreg free
  2293  00245C  5014               	movf	?___lwdiv^0,w,c
  2294  00245E  6E44               	movwf	_g_u8temperature^0,c
  2295  002460                     
  2296                           ;microwave.c: 141:     if(g_u8old_temp_reading != g_u8temperature)
  2297  002460  5044               	movf	_g_u8temperature^0,w,c
  2298  002462  184E               	xorwf	_g_u8old_temp_reading^0,w,c
  2299  002464  B4D8               	btfsc	status,2,c
  2300  002466  EF37  F012         	goto	u2921
  2301  00246A  EF39  F012         	goto	u2920
  2302  00246E                     u2921:
  2303  00246E  EF57  F012         	goto	l587
  2304  002472                     u2920:
  2305  002472                     
  2306                           ;microwave.c: 142:     {;microwave.c: 144:         PWM_DutyCycle(PWM_CHANNEL_1 , 100 - g
      +                          _u8temperature * 2);
  2307  002472  5044               	movf	_g_u8temperature^0,w,c
  2308  002474  0DFE               	mullw	-2
  2309  002476  50F3               	movf	243,w,c
  2310  002478  0F64               	addlw	100
  2311  00247A  6E1F               	movwf	PWM_DutyCycle@a_u16PWM_duty_cycle^0,c
  2312  00247C  0E00               	movlw	0
  2313  00247E  ECEC  F00D         	call	_PWM_DutyCycle
  2314  002482                     
  2315                           ;microwave.c: 146:         LCD_SetDisplayPosition(14,2);
  2316  002482  0E02               	movlw	2
  2317  002484  6E0D               	movwf	LCD_SetDisplayPosition@a_u8position_Y^0,c
  2318  002486  0E0E               	movlw	14
  2319  002488  ECFA  F010         	call	_LCD_SetDisplayPosition
  2320  00248C                     
  2321                           ;microwave.c: 148:         LCD_DisplaNumber(g_u8temperature + 27u);
  2322  00248C  5044               	movf	_g_u8temperature^0,w,c
  2323  00248E  6E34               	movwf	??_Set_and_Display_desired_temp^0,c
  2324  002490  6A35               	clrf	(??_Set_and_Display_desired_temp+1)^0,c
  2325  002492  0E1B               	movlw	27
  2326  002494  2634               	addwf	??_Set_and_Display_desired_temp^0,f,c
  2327  002496  0E00               	movlw	0
  2328  002498  2235               	addwfc	(??_Set_and_Display_desired_temp+1)^0,f,c
  2329  00249A  C034  F01F         	movff	??_Set_and_Display_desired_temp,LCD_DisplaNumber@a_s32number
  2330  00249E  C035  F020         	movff	??_Set_and_Display_desired_temp+1,LCD_DisplaNumber@a_s32number+1
  2331  0024A2  6A21               	clrf	(LCD_DisplaNumber@a_s32number+2)^0,c
  2332  0024A4  6A22               	clrf	(LCD_DisplaNumber@a_s32number+3)^0,c
  2333  0024A6  ECDE  F007         	call	_LCD_DisplaNumber	;wreg free
  2334  0024AA                     
  2335                           ;microwave.c: 150:         g_u8old_temp_reading = g_u8temperature;
  2336  0024AA  C044  F04E         	movff	_g_u8temperature,_g_u8old_temp_reading
  2337  0024AE                     l587:
  2338  0024AE  0012               	return		;funcret
  2339  0024B0                     __end_of_Set_and_Display_desired_temp:
  2340                           	opt callstack 0
  2341                           
  2342 ;; *************** function ___wmul *****************
  2343 ;; Defined at:
  2344 ;;		line 15 in file "C:\Program Files (x86)\Microchip\xc8\v2.10\pic\sources\c99\common\Umul16.c"
  2345 ;; Parameters:    Size  Location     Type
  2346 ;;  multiplier      2   13[COMRAM] unsigned int 
  2347 ;;  multiplicand    2   15[COMRAM] unsigned int 
  2348 ;; Auto vars:     Size  Location     Type
  2349 ;;  product         2   17[COMRAM] unsigned int 
  2350 ;; Return value:  Size  Location     Type
  2351 ;;                  2   13[COMRAM] unsigned int 
  2352 ;; Registers used:
  2353 ;;		wreg, status,2, status,0, prodl, prodh
  2354 ;; Tracked objects:
  2355 ;;		On entry : 0/0
  2356 ;;		On exit  : 0/0
  2357 ;;		Unchanged: 0/0
  2358 ;; Data sizes:     COMRAM   BANK0   BANK1   BANK2   BANK3   BANK4   BANK5
  2359 ;;      Params:         4       0       0       0       0       0       0
  2360 ;;      Locals:         2       0       0       0       0       0       0
  2361 ;;      Temps:          0       0       0       0       0       0       0
  2362 ;;      Totals:         6       0       0       0       0       0       0
  2363 ;;Total ram usage:        6 bytes
  2364 ;; Hardware stack levels used:    1
  2365 ;; Hardware stack levels required when called:    3
  2366 ;; This function calls:
  2367 ;;		Nothing
  2368 ;; This function is called by:
  2369 ;;		_Set_and_Display_desired_temp
  2370 ;;		_User_insert_time_and_start_heating_function
  2371 ;; This function uses a non-reentrant model
  2372 ;;
  2373                           
  2374                           	psect	text11
  2375  002998                     __ptext11:
  2376                           	opt callstack 0
  2377  002998                     ___wmul:
  2378                           	opt callstack 26
  2379  002998  500E               	movf	___wmul@multiplier^0,w,c
  2380  00299A  0210               	mulwf	___wmul@multiplicand^0,c
  2381  00299C  CFF3 F012          	movff	prodl,___wmul@product
  2382  0029A0  CFF4 F013          	movff	prodh,___wmul@product+1
  2383  0029A4  500E               	movf	___wmul@multiplier^0,w,c
  2384  0029A6  0211               	mulwf	(___wmul@multiplicand+1)^0,c
  2385  0029A8  50F3               	movf	243,w,c
  2386  0029AA  2613               	addwf	(___wmul@product+1)^0,f,c
  2387  0029AC  500F               	movf	(___wmul@multiplier+1)^0,w,c
  2388  0029AE  0210               	mulwf	___wmul@multiplicand^0,c
  2389  0029B0  50F3               	movf	243,w,c
  2390  0029B2  2613               	addwf	(___wmul@product+1)^0,f,c
  2391  0029B4  C012  F00E         	movff	___wmul@product,?___wmul
  2392  0029B8  C013  F00F         	movff	___wmul@product+1,?___wmul+1
  2393  0029BC  0012               	return		;funcret
  2394  0029BE                     __end_of___wmul:
  2395                           	opt callstack 0
  2396                           
  2397 ;; *************** function _PWM_DutyCycle *****************
  2398 ;; Defined at:
  2399 ;;		line 217 in file "PWM.c"
  2400 ;; Parameters:    Size  Location     Type
  2401 ;;  a_PWM_channe    1    wreg     enum E10
  2402 ;;  a_u16PWM_dut    1   30[COMRAM] unsigned char 
  2403 ;; Auto vars:     Size  Location     Type
  2404 ;;  a_PWM_channe    1   33[COMRAM] enum E10
  2405 ;;  u16PWM_regis    2   34[COMRAM] unsigned short 
  2406 ;; Return value:  Size  Location     Type
  2407 ;;                  1    wreg      void 
  2408 ;; Registers used:
  2409 ;;		wreg, status,2, status,0, cstack
  2410 ;; Tracked objects:
  2411 ;;		On entry : 0/0
  2412 ;;		On exit  : 0/0
  2413 ;;		Unchanged: 0/0
  2414 ;; Data sizes:     COMRAM   BANK0   BANK1   BANK2   BANK3   BANK4   BANK5
  2415 ;;      Params:         1       0       0       0       0       0       0
  2416 ;;      Locals:         3       0       0       0       0       0       0
  2417 ;;      Temps:          2       0       0       0       0       0       0
  2418 ;;      Totals:         6       0       0       0       0       0       0
  2419 ;;Total ram usage:        6 bytes
  2420 ;; Hardware stack levels used:    1
  2421 ;; Hardware stack levels required when called:    4
  2422 ;; This function calls:
  2423 ;;		_Timer2_enable
  2424 ;;		___lldiv
  2425 ;;		___lmul
  2426 ;; This function is called by:
  2427 ;;		_Set_and_Display_desired_temp
  2428 ;; This function uses a non-reentrant model
  2429 ;;
  2430                           
  2431                           	psect	text12
  2432  001BD8                     __ptext12:
  2433                           	opt callstack 0
  2434  001BD8                     _PWM_DutyCycle:
  2435                           	opt callstack 25
  2436                           
  2437                           ;incstack = 0
  2438                           ;PWM_DutyCycle@a_PWM_channel_t stored from wreg
  2439  001BD8  6E22               	movwf	PWM_DutyCycle@a_PWM_channel_t^0,c
  2440  001BDA                     
  2441                           ;PWM.c: 217: void PWM_DutyCycle(EnumPWM_channel_t a_PWM_channel_t , uint8 a_u16PWM_duty_
      +                          cycle);PWM.c: 218: {;PWM.c: 220:     uint16 u16PWM_register_val = (uint16)((uint32)g_u16
      +                          PWM_reg_value_at_100DutyCycle *
  2442  001BDA  C03A  F006         	movff	_g_u16PWM_reg_value_at_100DutyCycle,___lmul@multiplier
  2443  001BDE  C03B  F007         	movff	_g_u16PWM_reg_value_at_100DutyCycle+1,___lmul@multiplier+1
  2444  001BE2  6A08               	clrf	(___lmul@multiplier+2)^0,c
  2445  001BE4  6A09               	clrf	(___lmul@multiplier+3)^0,c
  2446  001BE6  501F               	movf	PWM_DutyCycle@a_u16PWM_duty_cycle^0,w,c
  2447  001BE8  6E0A               	movwf	___lmul@multiplicand^0,c
  2448  001BEA  6A0B               	clrf	(___lmul@multiplicand+1)^0,c
  2449  001BEC  6A0C               	clrf	(___lmul@multiplicand+2)^0,c
  2450  001BEE  6A0D               	clrf	(___lmul@multiplicand+3)^0,c
  2451  001BF0  EC78  F013         	call	___lmul	;wreg free
  2452  001BF4  C006  F012         	movff	?___lmul,___lldiv@dividend
  2453  001BF8  C007  F013         	movff	?___lmul+1,___lldiv@dividend+1
  2454  001BFC  C008  F014         	movff	?___lmul+2,___lldiv@dividend+2
  2455  001C00  C009  F015         	movff	?___lmul+3,___lldiv@dividend+3
  2456  001C04  0E64               	movlw	100
  2457  001C06  6E16               	movwf	___lldiv@divisor^0,c
  2458  001C08  0E00               	movlw	0
  2459  001C0A  6E17               	movwf	(___lldiv@divisor+1)^0,c
  2460  001C0C  0E00               	movlw	0
  2461  001C0E  6E18               	movwf	(___lldiv@divisor+2)^0,c
  2462  001C10  0E00               	movlw	0
  2463  001C12  6E19               	movwf	(___lldiv@divisor+3)^0,c
  2464  001C14  EC59  F010         	call	___lldiv	;wreg free
  2465  001C18  C012  F023         	movff	?___lldiv,PWM_DutyCycle@u16PWM_register_val
  2466  001C1C  C013  F024         	movff	?___lldiv+1,PWM_DutyCycle@u16PWM_register_val+1
  2467  001C20                     
  2468                           ;PWM.c: 223:     if(a_PWM_channel_t == PWM_CHANNEL_1)
  2469  001C20  5022               	movf	PWM_DutyCycle@a_PWM_channel_t^0,w,c
  2470  001C22  A4D8               	btfss	status,2,c
  2471  001C24  EF16  F00E         	goto	u2681
  2472  001C28  EF18  F00E         	goto	u2680
  2473  001C2C                     u2681:
  2474  001C2C  EF3C  F00E         	goto	l701
  2475  001C30                     u2680:
  2476  001C30                     
  2477                           ;PWM.c: 224:     {;PWM.c: 227:         if(u16PWM_register_val & 0x0001)
  2478  001C30  A023               	btfss	PWM_DutyCycle@u16PWM_register_val^0,0,c
  2479  001C32  EF1D  F00E         	goto	u2691
  2480  001C36  EF1F  F00E         	goto	u2690
  2481  001C3A                     u2691:
  2482  001C3A  EF22  F00E         	goto	l3789
  2483  001C3E                     u2690:
  2484  001C3E                     
  2485                           ;PWM.c: 228:         {;PWM.c: 229:             *(volatile uint8*)0xFBD |= 1 << 4u;
  2486  001C3E  88BD               	bsf	189,4,c	;volatile
  2487                           
  2488                           ;PWM.c: 230:         }
  2489  001C40  EF23  F00E         	goto	l3791
  2490  001C44                     l3789:
  2491                           
  2492                           ;PWM.c: 232:         {;PWM.c: 233:             *(volatile uint8*)0xFBD &= ~(1 << 4u);
  2493  001C44  98BD               	bcf	189,4,c	;volatile
  2494  001C46                     l3791:
  2495                           
  2496                           ;PWM.c: 237:         if(u16PWM_register_val & 0x0002)
  2497  001C46  A223               	btfss	PWM_DutyCycle@u16PWM_register_val^0,1,c
  2498  001C48  EF28  F00E         	goto	u2701
  2499  001C4C  EF2A  F00E         	goto	u2700
  2500  001C50                     u2701:
  2501  001C50  EF2D  F00E         	goto	l3795
  2502  001C54                     u2700:
  2503  001C54                     
  2504                           ;PWM.c: 238:         {;PWM.c: 239:             *(volatile uint8*)0xFBD |= 1 << 5u;
  2505  001C54  8ABD               	bsf	189,5,c	;volatile
  2506                           
  2507                           ;PWM.c: 240:         }
  2508  001C56  EF2E  F00E         	goto	l3797
  2509  001C5A                     l3795:
  2510                           
  2511                           ;PWM.c: 242:         {;PWM.c: 243:             *(volatile uint8*)0xFBD &= ~(1 << 5u);
  2512  001C5A  9ABD               	bcf	189,5,c	;volatile
  2513  001C5C                     l3797:
  2514                           
  2515                           ;PWM.c: 246:         *(volatile uint8*)0xFBE = u16PWM_register_val >> 2;
  2516  001C5C  C023  F020         	movff	PWM_DutyCycle@u16PWM_register_val,??_PWM_DutyCycle
  2517  001C60  C024  F021         	movff	PWM_DutyCycle@u16PWM_register_val+1,??_PWM_DutyCycle+1
  2518  001C64  90D8               	bcf	status,0,c
  2519  001C66  3221               	rrcf	(??_PWM_DutyCycle+1)^0,f,c
  2520  001C68  3220               	rrcf	??_PWM_DutyCycle^0,f,c
  2521  001C6A  90D8               	bcf	status,0,c
  2522  001C6C  3221               	rrcf	(??_PWM_DutyCycle+1)^0,f,c
  2523  001C6E  3220               	rrcf	??_PWM_DutyCycle^0,f,c
  2524  001C70  5020               	movf	??_PWM_DutyCycle^0,w,c
  2525  001C72  6EBE               	movwf	190,c	;volatile
  2526                           
  2527                           ;PWM.c: 247:     }
  2528  001C74  EF5E  F00E         	goto	l3811
  2529  001C78                     l701:
  2530                           
  2531                           ;PWM.c: 249:     {;PWM.c: 252:         if(u16PWM_register_val & 0x0001)
  2532  001C78  A023               	btfss	PWM_DutyCycle@u16PWM_register_val^0,0,c
  2533  001C7A  EF41  F00E         	goto	u2711
  2534  001C7E  EF43  F00E         	goto	u2710
  2535  001C82                     u2711:
  2536  001C82  EF46  F00E         	goto	l3801
  2537  001C86                     u2710:
  2538  001C86                     
  2539                           ;PWM.c: 253:         {;PWM.c: 254:             *(volatile uint8*)0xFBA |= 1 << 4u;
  2540  001C86  88BA               	bsf	186,4,c	;volatile
  2541                           
  2542                           ;PWM.c: 255:         }
  2543  001C88  EF47  F00E         	goto	l3803
  2544  001C8C                     l3801:
  2545                           
  2546                           ;PWM.c: 257:         {;PWM.c: 258:             *(volatile uint8*)0xFBA &= ~(1 << 4u);
  2547  001C8C  98BA               	bcf	186,4,c	;volatile
  2548  001C8E                     l3803:
  2549                           
  2550                           ;PWM.c: 262:         if(u16PWM_register_val & 0x0002)
  2551  001C8E  A223               	btfss	PWM_DutyCycle@u16PWM_register_val^0,1,c
  2552  001C90  EF4C  F00E         	goto	u2721
  2553  001C94  EF4E  F00E         	goto	u2720
  2554  001C98                     u2721:
  2555  001C98  EF51  F00E         	goto	l3807
  2556  001C9C                     u2720:
  2557  001C9C                     
  2558                           ;PWM.c: 263:         {;PWM.c: 264:             *(volatile uint8*)0xFBA |= 1 << 5u;
  2559  001C9C  8ABA               	bsf	186,5,c	;volatile
  2560                           
  2561                           ;PWM.c: 265:         }
  2562  001C9E  EF52  F00E         	goto	l3809
  2563  001CA2                     l3807:
  2564                           
  2565                           ;PWM.c: 267:         {;PWM.c: 268:             *(volatile uint8*)0xFBA &= ~(1 << 5u);
  2566  001CA2  9ABA               	bcf	186,5,c	;volatile
  2567  001CA4                     l3809:
  2568                           
  2569                           ;PWM.c: 271:         *(volatile uint8*)0xFBB = u16PWM_register_val >> 2;
  2570  001CA4  C023  F020         	movff	PWM_DutyCycle@u16PWM_register_val,??_PWM_DutyCycle
  2571  001CA8  C024  F021         	movff	PWM_DutyCycle@u16PWM_register_val+1,??_PWM_DutyCycle+1
  2572  001CAC  90D8               	bcf	status,0,c
  2573  001CAE  3221               	rrcf	(??_PWM_DutyCycle+1)^0,f,c
  2574  001CB0  3220               	rrcf	??_PWM_DutyCycle^0,f,c
  2575  001CB2  90D8               	bcf	status,0,c
  2576  001CB4  3221               	rrcf	(??_PWM_DutyCycle+1)^0,f,c
  2577  001CB6  3220               	rrcf	??_PWM_DutyCycle^0,f,c
  2578  001CB8  5020               	movf	??_PWM_DutyCycle^0,w,c
  2579  001CBA  6EBB               	movwf	187,c	;volatile
  2580  001CBC                     l3811:
  2581                           
  2582                           ;PWM.c: 275:    Timer2_enable();
  2583  001CBC  EC51  F015         	call	_Timer2_enable	;wreg free
  2584  001CC0  0012               	return		;funcret
  2585  001CC2                     __end_of_PWM_DutyCycle:
  2586                           	opt callstack 0
  2587                           
  2588 ;; *************** function _Timer2_enable *****************
  2589 ;; Defined at:
  2590 ;;		line 456 in file "timers.c"
  2591 ;; Parameters:    Size  Location     Type
  2592 ;;		None
  2593 ;; Auto vars:     Size  Location     Type
  2594 ;;		None
  2595 ;; Return value:  Size  Location     Type
  2596 ;;                  1    wreg      void 
  2597 ;; Registers used:
  2598 ;;		status,2, status,0
  2599 ;; Tracked objects:
  2600 ;;		On entry : 0/0
  2601 ;;		On exit  : 0/0
  2602 ;;		Unchanged: 0/0
  2603 ;; Data sizes:     COMRAM   BANK0   BANK1   BANK2   BANK3   BANK4   BANK5
  2604 ;;      Params:         0       0       0       0       0       0       0
  2605 ;;      Locals:         0       0       0       0       0       0       0
  2606 ;;      Temps:          0       0       0       0       0       0       0
  2607 ;;      Totals:         0       0       0       0       0       0       0
  2608 ;;Total ram usage:        0 bytes
  2609 ;; Hardware stack levels used:    1
  2610 ;; Hardware stack levels required when called:    3
  2611 ;; This function calls:
  2612 ;;		Nothing
  2613 ;; This function is called by:
  2614 ;;		_PWM_DutyCycle
  2615 ;; This function uses a non-reentrant model
  2616 ;;
  2617                           
  2618                           	psect	text13
  2619  002AA2                     __ptext13:
  2620                           	opt callstack 0
  2621  002AA2                     _Timer2_enable:
  2622                           	opt callstack 25
  2623  002AA2                     
  2624                           ;timers.c: 458:     *(volatile uint8*)0xFCA |= 1 << 2u;
  2625  002AA2  84CA               	bsf	202,2,c	;volatile
  2626  002AA4  0012               	return		;funcret
  2627  002AA6                     __end_of_Timer2_enable:
  2628                           	opt callstack 0
  2629                           
  2630 ;; *************** function _LCD_DisplaNumber *****************
  2631 ;; Defined at:
  2632 ;;		line 317 in file "LCD.c"
  2633 ;; Parameters:    Size  Location     Type
  2634 ;;  a_s32number     4   30[COMRAM] long 
  2635 ;; Auto vars:     Size  Location     Type
  2636 ;;  u8counter       1   41[COMRAM] unsigned char 
  2637 ;;  div             4   47[COMRAM] unsigned long 
  2638 ;;  check           4   42[COMRAM] unsigned long 
  2639 ;;  DigitNo         1   46[COMRAM] unsigned char 
  2640 ;; Return value:  Size  Location     Type
  2641 ;;                  1    wreg      void 
  2642 ;; Registers used:
  2643 ;;		wreg, status,2, status,0, cstack
  2644 ;; Tracked objects:
  2645 ;;		On entry : 0/0
  2646 ;;		On exit  : 0/0
  2647 ;;		Unchanged: 0/0
  2648 ;; Data sizes:     COMRAM   BANK0   BANK1   BANK2   BANK3   BANK4   BANK5
  2649 ;;      Params:         4       0       0       0       0       0       0
  2650 ;;      Locals:        10       0       0       0       0       0       0
  2651 ;;      Temps:          7       0       0       0       0       0       0
  2652 ;;      Totals:        21       0       0       0       0       0       0
  2653 ;;Total ram usage:       21 bytes
  2654 ;; Hardware stack levels used:    1
  2655 ;; Hardware stack levels required when called:    7
  2656 ;; This function calls:
  2657 ;;		_LCD_SendDataByte
  2658 ;;		___lldiv
  2659 ;;		___llmod
  2660 ;;		___lmul
  2661 ;; This function is called by:
  2662 ;;		_Set_and_Display_desired_temp
  2663 ;;		_User_insert_time_and_start_heating_function
  2664 ;; This function uses a non-reentrant model
  2665 ;;
  2666                           
  2667                           	psect	text14
  2668  000FBC                     __ptext14:
  2669                           	opt callstack 0
  2670  000FBC                     _LCD_DisplaNumber:
  2671                           	opt callstack 22
  2672  000FBC                     
  2673                           ;LCD.c: 317: void LCD_DisplaNumber(sint32 a_s32number);LCD.c: 318: {;LCD.c: 320:  if(a_s
      +                          32number == 0)
  2674  000FBC  501F               	movf	LCD_DisplaNumber@a_s32number^0,w,c
  2675  000FBE  1020               	iorwf	(LCD_DisplaNumber@a_s32number+1)^0,w,c
  2676  000FC0  1021               	iorwf	(LCD_DisplaNumber@a_s32number+2)^0,w,c
  2677  000FC2  1022               	iorwf	(LCD_DisplaNumber@a_s32number+3)^0,w,c
  2678  000FC4  A4D8               	btfss	status,2,c
  2679  000FC6  EFE7  F007         	goto	u2571
  2680  000FCA  EFE9  F007         	goto	u2570
  2681  000FCE                     u2571:
  2682  000FCE  EFEE  F007         	goto	l3697
  2683  000FD2                     u2570:
  2684  000FD2                     
  2685                           ;LCD.c: 321:  {;LCD.c: 322:   LCD_SendDataByte(0x30);
  2686  000FD2  0E30               	movlw	48
  2687  000FD4  EC9F  F00B         	call	_LCD_SendDataByte
  2688  000FD8  EFCB  F008         	goto	l427
  2689  000FDC                     l3697:
  2690                           
  2691                           ;LCD.c: 326:  if(a_s32number<0)
  2692  000FDC  BE22               	btfsc	(LCD_DisplaNumber@a_s32number+3)^0,7,c
  2693  000FDE  EFF5  F007         	goto	u2580
  2694  000FE2  EFF3  F007         	goto	u2581
  2695  000FE6                     u2581:
  2696  000FE6  EF00  F008         	goto	l3703
  2697  000FEA                     u2580:
  2698  000FEA                     
  2699                           ;LCD.c: 327:  {;LCD.c: 328:   a_s32number = - a_s32number;
  2700  000FEA  1E22               	comf	(LCD_DisplaNumber@a_s32number+3)^0,f,c
  2701  000FEC  1E21               	comf	(LCD_DisplaNumber@a_s32number+2)^0,f,c
  2702  000FEE  1E20               	comf	(LCD_DisplaNumber@a_s32number+1)^0,f,c
  2703  000FF0  6C1F               	negf	LCD_DisplaNumber@a_s32number^0,c
  2704  000FF2  0E00               	movlw	0
  2705  000FF4  2220               	addwfc	(LCD_DisplaNumber@a_s32number+1)^0,f,c
  2706  000FF6  2221               	addwfc	(LCD_DisplaNumber@a_s32number+2)^0,f,c
  2707  000FF8  2222               	addwfc	(LCD_DisplaNumber@a_s32number+3)^0,f,c
  2708  000FFA                     
  2709                           ;LCD.c: 329:   LCD_SendDataByte('-');
  2710  000FFA  0E2D               	movlw	45
  2711  000FFC  EC9F  F00B         	call	_LCD_SendDataByte
  2712  001000                     l3703:
  2713                           
  2714                           ;LCD.c: 332:     uint8 DigitNo = 0;
  2715  001000  0E00               	movlw	0
  2716  001002  6E2F               	movwf	LCD_DisplaNumber@DigitNo^0,c
  2717  001004                     
  2718                           ;LCD.c: 334:     uint32 check = a_s32number;
  2719  001004  C01F  F02B         	movff	LCD_DisplaNumber@a_s32number,LCD_DisplaNumber@check
  2720  001008  C020  F02C         	movff	LCD_DisplaNumber@a_s32number+1,LCD_DisplaNumber@check+1
  2721  00100C  C021  F02D         	movff	LCD_DisplaNumber@a_s32number+2,LCD_DisplaNumber@check+2
  2722  001010  C022  F02E         	movff	LCD_DisplaNumber@a_s32number+3,LCD_DisplaNumber@check+3
  2723  001014                     
  2724                           ;LCD.c: 335:     uint32 div = 1;
  2725  001014  0E01               	movlw	1
  2726  001016  6E30               	movwf	LCD_DisplaNumber@div^0,c
  2727  001018  0E00               	movlw	0
  2728  00101A  6E31               	movwf	(LCD_DisplaNumber@div+1)^0,c
  2729  00101C  0E00               	movlw	0
  2730  00101E  6E32               	movwf	(LCD_DisplaNumber@div+2)^0,c
  2731  001020  0E00               	movlw	0
  2732  001022  6E33               	movwf	(LCD_DisplaNumber@div+3)^0,c
  2733                           
  2734                           ;LCD.c: 337:     while(check != 0)
  2735  001024  EF2F  F008         	goto	l3713
  2736  001028                     l3709:
  2737                           
  2738                           ;LCD.c: 338:     {;LCD.c: 339:         check /= 10;
  2739  001028  C02B  F012         	movff	LCD_DisplaNumber@check,___lldiv@dividend
  2740  00102C  C02C  F013         	movff	LCD_DisplaNumber@check+1,___lldiv@dividend+1
  2741  001030  C02D  F014         	movff	LCD_DisplaNumber@check+2,___lldiv@dividend+2
  2742  001034  C02E  F015         	movff	LCD_DisplaNumber@check+3,___lldiv@dividend+3
  2743  001038  0E0A               	movlw	10
  2744  00103A  6E16               	movwf	___lldiv@divisor^0,c
  2745  00103C  0E00               	movlw	0
  2746  00103E  6E17               	movwf	(___lldiv@divisor+1)^0,c
  2747  001040  0E00               	movlw	0
  2748  001042  6E18               	movwf	(___lldiv@divisor+2)^0,c
  2749  001044  0E00               	movlw	0
  2750  001046  6E19               	movwf	(___lldiv@divisor+3)^0,c
  2751  001048  EC59  F010         	call	___lldiv	;wreg free
  2752  00104C  C012  F02B         	movff	?___lldiv,LCD_DisplaNumber@check
  2753  001050  C013  F02C         	movff	?___lldiv+1,LCD_DisplaNumber@check+1
  2754  001054  C014  F02D         	movff	?___lldiv+2,LCD_DisplaNumber@check+2
  2755  001058  C015  F02E         	movff	?___lldiv+3,LCD_DisplaNumber@check+3
  2756  00105C                     
  2757                           ;LCD.c: 340:         DigitNo++;
  2758  00105C  2A2F               	incf	LCD_DisplaNumber@DigitNo^0,f,c
  2759  00105E                     l3713:
  2760                           
  2761                           ;LCD.c: 337:     while(check != 0)
  2762  00105E  502B               	movf	LCD_DisplaNumber@check^0,w,c
  2763  001060  102C               	iorwf	(LCD_DisplaNumber@check+1)^0,w,c
  2764  001062  102D               	iorwf	(LCD_DisplaNumber@check+2)^0,w,c
  2765  001064  102E               	iorwf	(LCD_DisplaNumber@check+3)^0,w,c
  2766  001066  A4D8               	btfss	status,2,c
  2767  001068  EF38  F008         	goto	u2591
  2768  00106C  EF3A  F008         	goto	u2590
  2769  001070                     u2591:
  2770  001070  EF14  F008         	goto	l3709
  2771  001074                     u2590:
  2772  001074                     
  2773                           ;LCD.c: 343:     for(uint8 u8counter = 0 ; u8counter < DigitNo - 1 ; u8counter++)
  2774  001074  0E00               	movlw	0
  2775  001076  6E2A               	movwf	LCD_DisplaNumber@u8counter^0,c
  2776  001078  EF59  F008         	goto	l3721
  2777  00107C                     l3717:
  2778                           
  2779                           ;LCD.c: 344:     {;LCD.c: 345:         div *= 10;
  2780  00107C  C030  F006         	movff	LCD_DisplaNumber@div,___lmul@multiplier
  2781  001080  C031  F007         	movff	LCD_DisplaNumber@div+1,___lmul@multiplier+1
  2782  001084  C032  F008         	movff	LCD_DisplaNumber@div+2,___lmul@multiplier+2
  2783  001088  C033  F009         	movff	LCD_DisplaNumber@div+3,___lmul@multiplier+3
  2784  00108C  0E0A               	movlw	10
  2785  00108E  6E0A               	movwf	___lmul@multiplicand^0,c
  2786  001090  0E00               	movlw	0
  2787  001092  6E0B               	movwf	(___lmul@multiplicand+1)^0,c
  2788  001094  0E00               	movlw	0
  2789  001096  6E0C               	movwf	(___lmul@multiplicand+2)^0,c
  2790  001098  0E00               	movlw	0
  2791  00109A  6E0D               	movwf	(___lmul@multiplicand+3)^0,c
  2792  00109C  EC78  F013         	call	___lmul	;wreg free
  2793  0010A0  C006  F030         	movff	?___lmul,LCD_DisplaNumber@div
  2794  0010A4  C007  F031         	movff	?___lmul+1,LCD_DisplaNumber@div+1
  2795  0010A8  C008  F032         	movff	?___lmul+2,LCD_DisplaNumber@div+2
  2796  0010AC  C009  F033         	movff	?___lmul+3,LCD_DisplaNumber@div+3
  2797  0010B0                     
  2798                           ;LCD.c: 346:     }
  2799  0010B0  2A2A               	incf	LCD_DisplaNumber@u8counter^0,f,c
  2800  0010B2                     l3721:
  2801  0010B2  0EFF               	movlw	255
  2802  0010B4  6E23               	movwf	??_LCD_DisplaNumber^0,c
  2803  0010B6  0EFF               	movlw	255
  2804  0010B8  6E24               	movwf	(??_LCD_DisplaNumber+1)^0,c
  2805  0010BA  502F               	movf	LCD_DisplaNumber@DigitNo^0,w,c
  2806  0010BC  6E25               	movwf	(??_LCD_DisplaNumber+2)^0,c
  2807  0010BE  6A26               	clrf	(??_LCD_DisplaNumber+3)^0,c
  2808  0010C0  5023               	movf	??_LCD_DisplaNumber^0,w,c
  2809  0010C2  2625               	addwf	(??_LCD_DisplaNumber+2)^0,f,c
  2810  0010C4  5024               	movf	(??_LCD_DisplaNumber+1)^0,w,c
  2811  0010C6  2226               	addwfc	(??_LCD_DisplaNumber+3)^0,f,c
  2812  0010C8  502A               	movf	LCD_DisplaNumber@u8counter^0,w,c
  2813  0010CA  6E27               	movwf	(??_LCD_DisplaNumber+4)^0,c
  2814  0010CC  6A28               	clrf	(??_LCD_DisplaNumber+5)^0,c
  2815  0010CE  5025               	movf	(??_LCD_DisplaNumber+2)^0,w,c
  2816  0010D0  5C27               	subwf	(??_LCD_DisplaNumber+4)^0,w,c
  2817  0010D2  5028               	movf	(??_LCD_DisplaNumber+5)^0,w,c
  2818  0010D4  0A80               	xorlw	128
  2819  0010D6  6E29               	movwf	(??_LCD_DisplaNumber+6)^0,c
  2820  0010D8  5026               	movf	(??_LCD_DisplaNumber+3)^0,w,c
  2821  0010DA  0A80               	xorlw	128
  2822  0010DC  5829               	subwfb	(??_LCD_DisplaNumber+6)^0,w,c
  2823  0010DE  A0D8               	btfss	status,0,c
  2824  0010E0  EF74  F008         	goto	u2601
  2825  0010E4  EF76  F008         	goto	u2600
  2826  0010E8                     u2601:
  2827  0010E8  EF3E  F008         	goto	l3717
  2828  0010EC                     u2600:
  2829  0010EC  EFC3  F008         	goto	l3727
  2830  0010F0                     l3723:
  2831                           
  2832                           ;LCD.c: 349:     {;LCD.c: 351:         LCD_SendDataByte(((a_s32number / div) + 0x30));
  2833  0010F0  C01F  F012         	movff	LCD_DisplaNumber@a_s32number,___lldiv@dividend
  2834  0010F4  C020  F013         	movff	LCD_DisplaNumber@a_s32number+1,___lldiv@dividend+1
  2835  0010F8  C021  F014         	movff	LCD_DisplaNumber@a_s32number+2,___lldiv@dividend+2
  2836  0010FC  C022  F015         	movff	LCD_DisplaNumber@a_s32number+3,___lldiv@dividend+3
  2837  001100  C030  F016         	movff	LCD_DisplaNumber@div,___lldiv@divisor
  2838  001104  C031  F017         	movff	LCD_DisplaNumber@div+1,___lldiv@divisor+1
  2839  001108  C032  F018         	movff	LCD_DisplaNumber@div+2,___lldiv@divisor+2
  2840  00110C  C033  F019         	movff	LCD_DisplaNumber@div+3,___lldiv@divisor+3
  2841  001110  EC59  F010         	call	___lldiv	;wreg free
  2842  001114  5012               	movf	?___lldiv^0,w,c
  2843  001116  0F30               	addlw	48
  2844  001118  EC9F  F00B         	call	_LCD_SendDataByte
  2845                           
  2846                           ;LCD.c: 353:         a_s32number %= div;
  2847  00111C  C01F  F006         	movff	LCD_DisplaNumber@a_s32number,___llmod@dividend
  2848  001120  C020  F007         	movff	LCD_DisplaNumber@a_s32number+1,___llmod@dividend+1
  2849  001124  C021  F008         	movff	LCD_DisplaNumber@a_s32number+2,___llmod@dividend+2
  2850  001128  C022  F009         	movff	LCD_DisplaNumber@a_s32number+3,___llmod@dividend+3
  2851  00112C  C030  F00A         	movff	LCD_DisplaNumber@div,___llmod@divisor
  2852  001130  C031  F00B         	movff	LCD_DisplaNumber@div+1,___llmod@divisor+1
  2853  001134  C032  F00C         	movff	LCD_DisplaNumber@div+2,___llmod@divisor+2
  2854  001138  C033  F00D         	movff	LCD_DisplaNumber@div+3,___llmod@divisor+3
  2855  00113C  ECD3  F011         	call	___llmod	;wreg free
  2856  001140  C006  F01F         	movff	?___llmod,LCD_DisplaNumber@a_s32number
  2857  001144  C007  F020         	movff	?___llmod+1,LCD_DisplaNumber@a_s32number+1
  2858  001148  C008  F021         	movff	?___llmod+2,LCD_DisplaNumber@a_s32number+2
  2859  00114C  C009  F022         	movff	?___llmod+3,LCD_DisplaNumber@a_s32number+3
  2860                           
  2861                           ;LCD.c: 355:         div /= 10;
  2862  001150  C030  F012         	movff	LCD_DisplaNumber@div,___lldiv@dividend
  2863  001154  C031  F013         	movff	LCD_DisplaNumber@div+1,___lldiv@dividend+1
  2864  001158  C032  F014         	movff	LCD_DisplaNumber@div+2,___lldiv@dividend+2
  2865  00115C  C033  F015         	movff	LCD_DisplaNumber@div+3,___lldiv@dividend+3
  2866  001160  0E0A               	movlw	10
  2867  001162  6E16               	movwf	___lldiv@divisor^0,c
  2868  001164  0E00               	movlw	0
  2869  001166  6E17               	movwf	(___lldiv@divisor+1)^0,c
  2870  001168  0E00               	movlw	0
  2871  00116A  6E18               	movwf	(___lldiv@divisor+2)^0,c
  2872  00116C  0E00               	movlw	0
  2873  00116E  6E19               	movwf	(___lldiv@divisor+3)^0,c
  2874  001170  EC59  F010         	call	___lldiv	;wreg free
  2875  001174  C012  F030         	movff	?___lldiv,LCD_DisplaNumber@div
  2876  001178  C013  F031         	movff	?___lldiv+1,LCD_DisplaNumber@div+1
  2877  00117C  C014  F032         	movff	?___lldiv+2,LCD_DisplaNumber@div+2
  2878  001180  C015  F033         	movff	?___lldiv+3,LCD_DisplaNumber@div+3
  2879  001184                     
  2880                           ;LCD.c: 357:         DigitNo--;
  2881  001184  062F               	decf	LCD_DisplaNumber@DigitNo^0,f,c
  2882  001186                     l3727:
  2883                           
  2884                           ;LCD.c: 348:     while(DigitNo != 0)
  2885  001186  502F               	movf	LCD_DisplaNumber@DigitNo^0,w,c
  2886  001188  A4D8               	btfss	status,2,c
  2887  00118A  EFC9  F008         	goto	u2611
  2888  00118E  EFCB  F008         	goto	u2610
  2889  001192                     u2611:
  2890  001192  EF78  F008         	goto	l3723
  2891  001196                     u2610:
  2892  001196                     l427:
  2893  001196  0012               	return		;funcret
  2894  001198                     __end_of_LCD_DisplaNumber:
  2895                           	opt callstack 0
  2896                           
  2897 ;; *************** function ___lmul *****************
  2898 ;; Defined at:
  2899 ;;		line 15 in file "C:\Program Files (x86)\Microchip\xc8\v2.10\pic\sources\c99\common\Umul32.c"
  2900 ;; Parameters:    Size  Location     Type
  2901 ;;  multiplier      4    5[COMRAM] unsigned long 
  2902 ;;  multiplicand    4    9[COMRAM] unsigned long 
  2903 ;; Auto vars:     Size  Location     Type
  2904 ;;  product         4   13[COMRAM] unsigned long 
  2905 ;; Return value:  Size  Location     Type
  2906 ;;                  4    5[COMRAM] unsigned long 
  2907 ;; Registers used:
  2908 ;;		wreg, status,2, status,0
  2909 ;; Tracked objects:
  2910 ;;		On entry : 0/0
  2911 ;;		On exit  : 0/0
  2912 ;;		Unchanged: 0/0
  2913 ;; Data sizes:     COMRAM   BANK0   BANK1   BANK2   BANK3   BANK4   BANK5
  2914 ;;      Params:         8       0       0       0       0       0       0
  2915 ;;      Locals:         4       0       0       0       0       0       0
  2916 ;;      Temps:          0       0       0       0       0       0       0
  2917 ;;      Totals:        12       0       0       0       0       0       0
  2918 ;;Total ram usage:       12 bytes
  2919 ;; Hardware stack levels used:    1
  2920 ;; Hardware stack levels required when called:    3
  2921 ;; This function calls:
  2922 ;;		Nothing
  2923 ;; This function is called by:
  2924 ;;		_LCD_DisplaNumber
  2925 ;;		_PWM_DutyCycle
  2926 ;; This function uses a non-reentrant model
  2927 ;;
  2928                           
  2929                           	psect	text15
  2930  0026F0                     __ptext15:
  2931                           	opt callstack 0
  2932  0026F0                     ___lmul:
  2933                           	opt callstack 25
  2934  0026F0  0E00               	movlw	0
  2935  0026F2  6E0E               	movwf	___lmul@product^0,c
  2936  0026F4  0E00               	movlw	0
  2937  0026F6  6E0F               	movwf	(___lmul@product+1)^0,c
  2938  0026F8  0E00               	movlw	0
  2939  0026FA  6E10               	movwf	(___lmul@product+2)^0,c
  2940  0026FC  0E00               	movlw	0
  2941  0026FE  6E11               	movwf	(___lmul@product+3)^0,c
  2942  002700                     l3555:
  2943  002700  A006               	btfss	___lmul@multiplier^0,0,c
  2944  002702  EF85  F013         	goto	u2381
  2945  002706  EF87  F013         	goto	u2380
  2946  00270A                     u2381:
  2947  00270A  EF8F  F013         	goto	l3559
  2948  00270E                     u2380:
  2949  00270E  500A               	movf	___lmul@multiplicand^0,w,c
  2950  002710  260E               	addwf	___lmul@product^0,f,c
  2951  002712  500B               	movf	(___lmul@multiplicand+1)^0,w,c
  2952  002714  220F               	addwfc	(___lmul@product+1)^0,f,c
  2953  002716  500C               	movf	(___lmul@multiplicand+2)^0,w,c
  2954  002718  2210               	addwfc	(___lmul@product+2)^0,f,c
  2955  00271A  500D               	movf	(___lmul@multiplicand+3)^0,w,c
  2956  00271C  2211               	addwfc	(___lmul@product+3)^0,f,c
  2957  00271E                     l3559:
  2958  00271E  90D8               	bcf	status,0,c
  2959  002720  360A               	rlcf	___lmul@multiplicand^0,f,c
  2960  002722  360B               	rlcf	(___lmul@multiplicand+1)^0,f,c
  2961  002724  360C               	rlcf	(___lmul@multiplicand+2)^0,f,c
  2962  002726  360D               	rlcf	(___lmul@multiplicand+3)^0,f,c
  2963  002728  90D8               	bcf	status,0,c
  2964  00272A  3209               	rrcf	(___lmul@multiplier+3)^0,f,c
  2965  00272C  3208               	rrcf	(___lmul@multiplier+2)^0,f,c
  2966  00272E  3207               	rrcf	(___lmul@multiplier+1)^0,f,c
  2967  002730  3206               	rrcf	___lmul@multiplier^0,f,c
  2968  002732  5006               	movf	___lmul@multiplier^0,w,c
  2969  002734  1007               	iorwf	(___lmul@multiplier+1)^0,w,c
  2970  002736  1008               	iorwf	(___lmul@multiplier+2)^0,w,c
  2971  002738  1009               	iorwf	(___lmul@multiplier+3)^0,w,c
  2972  00273A  A4D8               	btfss	status,2,c
  2973  00273C  EFA2  F013         	goto	u2391
  2974  002740  EFA4  F013         	goto	u2390
  2975  002744                     u2391:
  2976  002744  EF80  F013         	goto	l3555
  2977  002748                     u2390:
  2978  002748  C00E  F006         	movff	___lmul@product,?___lmul
  2979  00274C  C00F  F007         	movff	___lmul@product+1,?___lmul+1
  2980  002750  C010  F008         	movff	___lmul@product+2,?___lmul+2
  2981  002754  C011  F009         	movff	___lmul@product+3,?___lmul+3
  2982  002758  0012               	return		;funcret
  2983  00275A                     __end_of___lmul:
  2984                           	opt callstack 0
  2985                           
  2986 ;; *************** function ___llmod *****************
  2987 ;; Defined at:
  2988 ;;		line 7 in file "C:\Program Files (x86)\Microchip\xc8\v2.10\pic\sources\c99\common\llmod.c"
  2989 ;; Parameters:    Size  Location     Type
  2990 ;;  dividend        4    5[COMRAM] unsigned long 
  2991 ;;  divisor         4    9[COMRAM] unsigned long 
  2992 ;; Auto vars:     Size  Location     Type
  2993 ;;  counter         1   13[COMRAM] unsigned char 
  2994 ;; Return value:  Size  Location     Type
  2995 ;;                  4    5[COMRAM] unsigned long 
  2996 ;; Registers used:
  2997 ;;		wreg, status,2, status,0
  2998 ;; Tracked objects:
  2999 ;;		On entry : 0/0
  3000 ;;		On exit  : 0/0
  3001 ;;		Unchanged: 0/0
  3002 ;; Data sizes:     COMRAM   BANK0   BANK1   BANK2   BANK3   BANK4   BANK5
  3003 ;;      Params:         8       0       0       0       0       0       0
  3004 ;;      Locals:         1       0       0       0       0       0       0
  3005 ;;      Temps:          0       0       0       0       0       0       0
  3006 ;;      Totals:         9       0       0       0       0       0       0
  3007 ;;Total ram usage:        9 bytes
  3008 ;; Hardware stack levels used:    1
  3009 ;; Hardware stack levels required when called:    3
  3010 ;; This function calls:
  3011 ;;		Nothing
  3012 ;; This function is called by:
  3013 ;;		_LCD_DisplaNumber
  3014 ;; This function uses a non-reentrant model
  3015 ;;
  3016                           
  3017                           	psect	text16
  3018  0023A6                     __ptext16:
  3019                           	opt callstack 0
  3020  0023A6                     ___llmod:
  3021                           	opt callstack 25
  3022  0023A6  500A               	movf	___llmod@divisor^0,w,c
  3023  0023A8  100B               	iorwf	(___llmod@divisor+1)^0,w,c
  3024  0023AA  100C               	iorwf	(___llmod@divisor+2)^0,w,c
  3025  0023AC  100D               	iorwf	(___llmod@divisor+3)^0,w,c
  3026  0023AE  B4D8               	btfsc	status,2,c
  3027  0023B0  EFDC  F011         	goto	u2431
  3028  0023B4  EFDE  F011         	goto	u2430
  3029  0023B8                     u2431:
  3030  0023B8  EF0E  F012         	goto	l1190
  3031  0023BC                     u2430:
  3032  0023BC  0E01               	movlw	1
  3033  0023BE  6E0E               	movwf	___llmod@counter^0,c
  3034  0023C0  EFE8  F011         	goto	l3591
  3035  0023C4                     l3589:
  3036  0023C4  90D8               	bcf	status,0,c
  3037  0023C6  360A               	rlcf	___llmod@divisor^0,f,c
  3038  0023C8  360B               	rlcf	(___llmod@divisor+1)^0,f,c
  3039  0023CA  360C               	rlcf	(___llmod@divisor+2)^0,f,c
  3040  0023CC  360D               	rlcf	(___llmod@divisor+3)^0,f,c
  3041  0023CE  2A0E               	incf	___llmod@counter^0,f,c
  3042  0023D0                     l3591:
  3043  0023D0  AE0D               	btfss	(___llmod@divisor+3)^0,7,c
  3044  0023D2  EFED  F011         	goto	u2441
  3045  0023D6  EFEF  F011         	goto	u2440
  3046  0023DA                     u2441:
  3047  0023DA  EFE2  F011         	goto	l3589
  3048  0023DE                     u2440:
  3049  0023DE                     l3593:
  3050  0023DE  500A               	movf	___llmod@divisor^0,w,c
  3051  0023E0  5C06               	subwf	___llmod@dividend^0,w,c
  3052  0023E2  500B               	movf	(___llmod@divisor+1)^0,w,c
  3053  0023E4  5807               	subwfb	(___llmod@dividend+1)^0,w,c
  3054  0023E6  500C               	movf	(___llmod@divisor+2)^0,w,c
  3055  0023E8  5808               	subwfb	(___llmod@dividend+2)^0,w,c
  3056  0023EA  500D               	movf	(___llmod@divisor+3)^0,w,c
  3057  0023EC  5809               	subwfb	(___llmod@dividend+3)^0,w,c
  3058  0023EE  A0D8               	btfss	status,0,c
  3059  0023F0  EFFC  F011         	goto	u2451
  3060  0023F4  EFFE  F011         	goto	u2450
  3061  0023F8                     u2451:
  3062  0023F8  EF06  F012         	goto	l3597
  3063  0023FC                     u2450:
  3064  0023FC  500A               	movf	___llmod@divisor^0,w,c
  3065  0023FE  5E06               	subwf	___llmod@dividend^0,f,c
  3066  002400  500B               	movf	(___llmod@divisor+1)^0,w,c
  3067  002402  5A07               	subwfb	(___llmod@dividend+1)^0,f,c
  3068  002404  500C               	movf	(___llmod@divisor+2)^0,w,c
  3069  002406  5A08               	subwfb	(___llmod@dividend+2)^0,f,c
  3070  002408  500D               	movf	(___llmod@divisor+3)^0,w,c
  3071  00240A  5A09               	subwfb	(___llmod@dividend+3)^0,f,c
  3072  00240C                     l3597:
  3073  00240C  90D8               	bcf	status,0,c
  3074  00240E  320D               	rrcf	(___llmod@divisor+3)^0,f,c
  3075  002410  320C               	rrcf	(___llmod@divisor+2)^0,f,c
  3076  002412  320B               	rrcf	(___llmod@divisor+1)^0,f,c
  3077  002414  320A               	rrcf	___llmod@divisor^0,f,c
  3078  002416  2E0E               	decfsz	___llmod@counter^0,f,c
  3079  002418  EFEF  F011         	goto	l3593
  3080  00241C                     l1190:
  3081  00241C  C006  F006         	movff	___llmod@dividend,?___llmod
  3082  002420  C007  F007         	movff	___llmod@dividend+1,?___llmod+1
  3083  002424  C008  F008         	movff	___llmod@dividend+2,?___llmod+2
  3084  002428  C009  F009         	movff	___llmod@dividend+3,?___llmod+3
  3085  00242C  0012               	return		;funcret
  3086  00242E                     __end_of___llmod:
  3087                           	opt callstack 0
  3088                           
  3089 ;; *************** function _ADC_Start_conversion *****************
  3090 ;; Defined at:
  3091 ;;		line 190 in file "ADC.c"
  3092 ;; Parameters:    Size  Location     Type
  3093 ;;		None
  3094 ;; Auto vars:     Size  Location     Type
  3095 ;;		None
  3096 ;; Return value:  Size  Location     Type
  3097 ;;                  1    wreg      void 
  3098 ;; Registers used:
  3099 ;;		status,2, status,0
  3100 ;; Tracked objects:
  3101 ;;		On entry : 0/0
  3102 ;;		On exit  : 0/0
  3103 ;;		Unchanged: 0/0
  3104 ;; Data sizes:     COMRAM   BANK0   BANK1   BANK2   BANK3   BANK4   BANK5
  3105 ;;      Params:         0       0       0       0       0       0       0
  3106 ;;      Locals:         0       0       0       0       0       0       0
  3107 ;;      Temps:          0       0       0       0       0       0       0
  3108 ;;      Totals:         0       0       0       0       0       0       0
  3109 ;;Total ram usage:        0 bytes
  3110 ;; Hardware stack levels used:    1
  3111 ;; Hardware stack levels required when called:    3
  3112 ;; This function calls:
  3113 ;;		Nothing
  3114 ;; This function is called by:
  3115 ;;		_Set_and_Display_desired_temp
  3116 ;; This function uses a non-reentrant model
  3117 ;;
  3118                           
  3119                           	psect	text17
  3120  002AA6                     __ptext17:
  3121                           	opt callstack 0
  3122  002AA6                     _ADC_Start_conversion:
  3123                           	opt callstack 26
  3124  002AA6                     
  3125                           ;ADC.c: 192:     *(volatile uint8*)0xFC2 |= 1 << 1u;
  3126  002AA6  82C2               	bsf	194,1,c	;volatile
  3127  002AA8  0012               	return		;funcret
  3128  002AAA                     __end_of_ADC_Start_conversion:
  3129                           	opt callstack 0
  3130                           
  3131 ;; *************** function _ADC_Read_value *****************
  3132 ;; Defined at:
  3133 ;;		line 160 in file "ADC.c"
  3134 ;; Parameters:    Size  Location     Type
  3135 ;;		None
  3136 ;; Auto vars:     Size  Location     Type
  3137 ;;  retVal          2   11[COMRAM] unsigned short 
  3138 ;; Return value:  Size  Location     Type
  3139 ;;                  2    5[COMRAM] unsigned short 
  3140 ;; Registers used:
  3141 ;;		wreg, status,2, status,0
  3142 ;; Tracked objects:
  3143 ;;		On entry : 0/0
  3144 ;;		On exit  : 0/0
  3145 ;;		Unchanged: 0/0
  3146 ;; Data sizes:     COMRAM   BANK0   BANK1   BANK2   BANK3   BANK4   BANK5
  3147 ;;      Params:         2       0       0       0       0       0       0
  3148 ;;      Locals:         2       0       0       0       0       0       0
  3149 ;;      Temps:          4       0       0       0       0       0       0
  3150 ;;      Totals:         8       0       0       0       0       0       0
  3151 ;;Total ram usage:        8 bytes
  3152 ;; Hardware stack levels used:    1
  3153 ;; Hardware stack levels required when called:    3
  3154 ;; This function calls:
  3155 ;;		Nothing
  3156 ;; This function is called by:
  3157 ;;		_Set_and_Display_desired_temp
  3158 ;; This function uses a non-reentrant model
  3159 ;;
  3160                           
  3161                           	psect	text18
  3162  00252C                     __ptext18:
  3163                           	opt callstack 0
  3164  00252C                     _ADC_Read_value:
  3165                           	opt callstack 26
  3166  00252C                     l3603:
  3167  00252C  CFC2 F008          	movff	4034,??_ADC_Read_value	;volatile
  3168  002530  90D8               	bcf	status,0,c
  3169  002532  3208               	rrcf	??_ADC_Read_value^0,f,c
  3170  002534  B008               	btfsc	??_ADC_Read_value^0,0,c
  3171  002536  EF9F  F012         	goto	u2461
  3172  00253A  EFA1  F012         	goto	u2460
  3173  00253E                     u2461:
  3174  00253E  EF96  F012         	goto	l3603
  3175  002542                     u2460:
  3176  002542                     
  3177                           ;ADC.c: 166:     if((*(volatile uint8*)0xFC0 >> 7u) & 0x01)
  3178  002542  6A08               	clrf	??_ADC_Read_value^0,c
  3179  002544  AEC0               	btfss	192,7,c	;volatile
  3180  002546  D001               	bra	u2475
  3181  002548  2A08               	incf	??_ADC_Read_value^0,f,c
  3182  00254A                     u2475:
  3183  00254A  A008               	btfss	??_ADC_Read_value^0,0,c
  3184  00254C  EFAA  F012         	goto	u2481
  3185  002550  EFAC  F012         	goto	u2480
  3186  002554                     u2481:
  3187  002554  EFB4  F012         	goto	l3609
  3188  002558                     u2480:
  3189  002558                     
  3190                           ;ADC.c: 167:     {;ADC.c: 169:         retVal = (uint16)*(volatile uint8*)0xFC4 << 8 | *
      +                          (volatile uint8*)0xFC3;
  3191  002558  50C4               	movf	196,w,c	;volatile
  3192  00255A  6E08               	movwf	??_ADC_Read_value^0,c
  3193  00255C  50C3               	movf	195,w,c	;volatile
  3194  00255E  6E0C               	movwf	ADC_Read_value@retVal^0,c
  3195  002560  C008  F00D         	movff	??_ADC_Read_value,ADC_Read_value@retVal+1
  3196                           
  3197                           ;ADC.c: 170:     }
  3198  002564  EFCB  F012         	goto	l3611
  3199  002568                     l3609:
  3200                           
  3201                           ;ADC.c: 172:     {;ADC.c: 174:         retVal = (uint16)*(volatile uint8*)0xFC4 << 2 | *
      +                          (volatile uint8*)0xFC3 >> 6;
  3202  002568  CFC3 F008          	movff	4035,??_ADC_Read_value	;volatile
  3203  00256C  0E06               	movlw	6
  3204  00256E  6E09               	movwf	(??_ADC_Read_value+1)^0,c
  3205  002570                     u2495:
  3206  002570  90D8               	bcf	status,0,c
  3207  002572  3208               	rrcf	??_ADC_Read_value^0,f,c
  3208  002574  2E09               	decfsz	(??_ADC_Read_value+1)^0,f,c
  3209  002576  EFB8  F012         	goto	u2495
  3210  00257A  5008               	movf	??_ADC_Read_value^0,w,c
  3211  00257C  CFC4 F00A          	movff	4036,??_ADC_Read_value+2	;volatile
  3212  002580  6A0B               	clrf	(??_ADC_Read_value+3)^0,c
  3213  002582  90D8               	bcf	status,0,c
  3214  002584  360A               	rlcf	(??_ADC_Read_value+2)^0,f,c
  3215  002586  360B               	rlcf	(??_ADC_Read_value+3)^0,f,c
  3216  002588  90D8               	bcf	status,0,c
  3217  00258A  360A               	rlcf	(??_ADC_Read_value+2)^0,f,c
  3218  00258C  360B               	rlcf	(??_ADC_Read_value+3)^0,f,c
  3219  00258E  100A               	iorwf	(??_ADC_Read_value+2)^0,w,c
  3220  002590  6E0C               	movwf	ADC_Read_value@retVal^0,c
  3221  002592  500B               	movf	(??_ADC_Read_value+3)^0,w,c
  3222  002594  6E0D               	movwf	(ADC_Read_value@retVal+1)^0,c
  3223  002596                     l3611:
  3224                           
  3225                           ;ADC.c: 176:     return retVal;
  3226  002596  C00C  F006         	movff	ADC_Read_value@retVal,?_ADC_Read_value
  3227  00259A  C00D  F007         	movff	ADC_Read_value@retVal+1,?_ADC_Read_value+1
  3228  00259E  0012               	return		;funcret
  3229  0025A0                     __end_of_ADC_Read_value:
  3230                           	opt callstack 0
  3231                           
  3232 ;; *************** function _Reset_to_idle_state *****************
  3233 ;; Defined at:
  3234 ;;		line 542 in file "microwave.c"
  3235 ;; Parameters:    Size  Location     Type
  3236 ;;		None
  3237 ;; Auto vars:     Size  Location     Type
  3238 ;;		None
  3239 ;; Return value:  Size  Location     Type
  3240 ;;                  1    wreg      void 
  3241 ;; Registers used:
  3242 ;;		wreg, fsr0l, fsr0h, status,2, status,0, tblptrl, tblptrh, tblptru, cstack
  3243 ;; Tracked objects:
  3244 ;;		On entry : 0/0
  3245 ;;		On exit  : 0/0
  3246 ;;		Unchanged: 0/0
  3247 ;; Data sizes:     COMRAM   BANK0   BANK1   BANK2   BANK3   BANK4   BANK5
  3248 ;;      Params:         0       0       0       0       0       0       0
  3249 ;;      Locals:         0       0       0       0       0       0       0
  3250 ;;      Temps:          0       0       0       0       0       0       0
  3251 ;;      Totals:         0       0       0       0       0       0       0
  3252 ;;Total ram usage:        0 bytes
  3253 ;; Hardware stack levels used:    1
  3254 ;; Hardware stack levels required when called:    9
  3255 ;; This function calls:
  3256 ;;		_Door_sensor_function
  3257 ;;		_GPIO_WriteOnPin
  3258 ;;		_Home_screen_display
  3259 ;;		_KeyPad_Initialization
  3260 ;;		_KeyPad_getPressedKey
  3261 ;;		_LCD_ClearScreen
  3262 ;; This function is called by:
  3263 ;;		_main
  3264 ;; This function uses a non-reentrant model
  3265 ;;
  3266                           
  3267                           	psect	text19
  3268  0027BE                     __ptext19:
  3269                           	opt callstack 0
  3270  0027BE                     _Reset_to_idle_state:
  3271                           	opt callstack 21
  3272  0027BE                     
  3273                           ;microwave.c: 546:     Door_sensor_function();
  3274  0027BE  EC46  F011         	call	_Door_sensor_function	;wreg free
  3275  0027C2                     
  3276                           ;microwave.c: 549:     KeyPad_Initialization();
  3277  0027C2  EC6D  F014         	call	_KeyPad_Initialization	;wreg free
  3278  0027C6                     
  3279                           ;microwave.c: 552:     if(KeyPad_getPressedKey() == '#' || g_door_state_t == DOOR_IS_OPE
      +                          NED)
  3280  0027C6  ECA6  F00F         	call	_KeyPad_getPressedKey	;wreg free
  3281  0027CA  0A23               	xorlw	35
  3282  0027CC  B4D8               	btfsc	status,2,c
  3283  0027CE  EFEB  F013         	goto	u3121
  3284  0027D2  EFED  F013         	goto	u3120
  3285  0027D6                     u3121:
  3286  0027D6  EFF5  F013         	goto	l4405
  3287  0027DA                     u3120:
  3288  0027DA  5050               	movf	_g_door_state_t^0,w,c
  3289  0027DC  A4D8               	btfss	status,2,c
  3290  0027DE  EFF3  F013         	goto	u3131
  3291  0027E2  EFF5  F013         	goto	u3130
  3292  0027E6                     u3131:
  3293  0027E6  EF0E  F014         	goto	l650
  3294  0027EA                     u3130:
  3295  0027EA                     l4405:
  3296                           
  3297                           ;microwave.c: 553:     {;microwave.c: 554:         g_system_state_var_t = SYSTEM_IDLE_ST
      +                          ATE;
  3298  0027EA  0E00               	movlw	0
  3299  0027EC  6E48               	movwf	_g_system_state_var_t^0,c
  3300  0027EE                     
  3301                           ;microwave.c: 556:         GPIO_WriteOnPin(2u , 1u , 1u);
  3302  0027EE  0E01               	movlw	1
  3303  0027F0  6E06               	movwf	GPIO_WriteOnPin@a_u8pin^0,c
  3304  0027F2  0E01               	movlw	1
  3305  0027F4  6E07               	movwf	GPIO_WriteOnPin@a_u8value^0,c
  3306  0027F6  0E02               	movlw	2
  3307  0027F8  EC9A  F006         	call	_GPIO_WriteOnPin
  3308  0027FC                     
  3309                           ;microwave.c: 557:         LCD_ClearScreen();
  3310  0027FC  EC39  F015         	call	_LCD_ClearScreen	;wreg free
  3311                           
  3312                           ;microwave.c: 559:         g_u8old_temp_reading = 100;
  3313  002800  0E64               	movlw	100
  3314  002802  6E4E               	movwf	_g_u8old_temp_reading^0,c
  3315  002804                     
  3316                           ;microwave.c: 561:         Home_screen_display();
  3317  002804  EC04  F010         	call	_Home_screen_display	;wreg free
  3318  002808                     
  3319                           ;microwave.c: 563:         g_u8timer_arr[0] = 48u;
  3320  002808  0E30               	movlw	48
  3321  00280A  6E51               	movwf	_g_u8timer_arr^0,c
  3322  00280C                     
  3323                           ;microwave.c: 564:         g_u8timer_arr[1] = 48u;
  3324  00280C  0E30               	movlw	48
  3325  00280E  6E52               	movwf	(_g_u8timer_arr+1)^0,c
  3326  002810                     
  3327                           ;microwave.c: 565:         g_u8timer_arr[3] = 48u;
  3328  002810  0E30               	movlw	48
  3329  002812  6E54               	movwf	(_g_u8timer_arr+3)^0,c
  3330  002814                     
  3331                           ;microwave.c: 566:         g_u8timer_arr[4] = 48u;
  3332  002814  0E30               	movlw	48
  3333  002816  6E55               	movwf	(_g_u8timer_arr+4)^0,c
  3334  002818                     
  3335                           ;microwave.c: 568:         g_u8time_digits = 0;
  3336  002818  0E00               	movlw	0
  3337  00281A  6E45               	movwf	_g_u8time_digits^0,c
  3338  00281C                     l650:
  3339  00281C  0012               	return		;funcret
  3340  00281E                     __end_of_Reset_to_idle_state:
  3341                           	opt callstack 0
  3342                           
  3343 ;; *************** function _Home_screen_display *****************
  3344 ;; Defined at:
  3345 ;;		line 609 in file "microwave.c"
  3346 ;; Parameters:    Size  Location     Type
  3347 ;;		None
  3348 ;; Auto vars:     Size  Location     Type
  3349 ;;		None
  3350 ;; Return value:  Size  Location     Type
  3351 ;;                  1    wreg      void 
  3352 ;; Registers used:
  3353 ;;		wreg, fsr0l, fsr0h, status,2, status,0, tblptrl, tblptrh, tblptru, cstack
  3354 ;; Tracked objects:
  3355 ;;		On entry : 0/0
  3356 ;;		On exit  : 0/0
  3357 ;;		Unchanged: 0/0
  3358 ;; Data sizes:     COMRAM   BANK0   BANK1   BANK2   BANK3   BANK4   BANK5
  3359 ;;      Params:         0       0       0       0       0       0       0
  3360 ;;      Locals:         0       0       0       0       0       0       0
  3361 ;;      Temps:          0       0       0       0       0       0       0
  3362 ;;      Totals:         0       0       0       0       0       0       0
  3363 ;;Total ram usage:        0 bytes
  3364 ;; Hardware stack levels used:    1
  3365 ;; Hardware stack levels required when called:    8
  3366 ;; This function calls:
  3367 ;;		_LCD_ClearScreen
  3368 ;;		_LCD_SendDataString
  3369 ;;		_LCD_SetDisplayPosition
  3370 ;; This function is called by:
  3371 ;;		_main
  3372 ;;		_User_insert_time_and_start_heating_function
  3373 ;;		_Reset_to_idle_state
  3374 ;; This function uses a non-reentrant model
  3375 ;;
  3376                           
  3377                           	psect	text20
  3378  002008                     __ptext20:
  3379                           	opt callstack 0
  3380  002008                     _Home_screen_display:
  3381                           	opt callstack 21
  3382  002008                     
  3383                           ;microwave.c: 612:     LCD_ClearScreen();
  3384  002008  EC39  F015         	call	_LCD_ClearScreen	;wreg free
  3385  00200C                     
  3386                           ;microwave.c: 613:     LCD_SendDataString("Time:");
  3387  00200C  0EDA               	movlw	low STR_21
  3388  00200E  6E12               	movwf	LCD_SendDataString@a_u8data_ptr^0,c
  3389  002010  0E06               	movlw	high STR_21
  3390  002012  6E13               	movwf	(LCD_SendDataString@a_u8data_ptr+1)^0,c
  3391  002014  EC0F  F014         	call	_LCD_SendDataString	;wreg free
  3392  002018                     
  3393                           ;microwave.c: 614:     LCD_SetDisplayPosition(11,1);
  3394  002018  0E01               	movlw	1
  3395  00201A  6E0D               	movwf	LCD_SetDisplayPosition@a_u8position_Y^0,c
  3396  00201C  0E0B               	movlw	11
  3397  00201E  ECFA  F010         	call	_LCD_SetDisplayPosition
  3398                           
  3399                           ;microwave.c: 615:     LCD_SendDataString("__:__");
  3400  002022  0EE0               	movlw	low STR_22
  3401  002024  6E12               	movwf	LCD_SendDataString@a_u8data_ptr^0,c
  3402  002026  0E06               	movlw	high STR_22
  3403  002028  6E13               	movwf	(LCD_SendDataString@a_u8data_ptr+1)^0,c
  3404  00202A  EC0F  F014         	call	_LCD_SendDataString	;wreg free
  3405  00202E                     
  3406                           ;microwave.c: 616:     LCD_SetDisplayPosition(0,2);
  3407  00202E  0E02               	movlw	2
  3408  002030  6E0D               	movwf	LCD_SetDisplayPosition@a_u8position_Y^0,c
  3409  002032  0E00               	movlw	0
  3410  002034  ECFA  F010         	call	_LCD_SetDisplayPosition
  3411  002038                     
  3412                           ;microwave.c: 617:     LCD_SendDataString("Temperature:");
  3413  002038  0E88               	movlw	low STR_6
  3414  00203A  6E12               	movwf	LCD_SendDataString@a_u8data_ptr^0,c
  3415  00203C  0E06               	movlw	high STR_6
  3416  00203E  6E13               	movwf	(LCD_SendDataString@a_u8data_ptr+1)^0,c
  3417  002040  EC0F  F014         	call	_LCD_SendDataString	;wreg free
  3418                           
  3419                           ;microwave.c: 619:     LCD_SetDisplayPosition(0,3);
  3420  002044  0E03               	movlw	3
  3421  002046  6E0D               	movwf	LCD_SetDisplayPosition@a_u8position_Y^0,c
  3422  002048  0E00               	movlw	0
  3423  00204A  ECFA  F010         	call	_LCD_SetDisplayPosition
  3424  00204E                     
  3425                           ;microwave.c: 620:     if(g_door_state_t == DOOR_IS_CLOSED)
  3426  00204E  0450               	decf	_g_door_state_t^0,w,c
  3427  002050  A4D8               	btfss	status,2,c
  3428  002052  EF2D  F010         	goto	u2621
  3429  002056  EF2F  F010         	goto	u2620
  3430  00205A                     u2621:
  3431  00205A  EF37  F010         	goto	l3743
  3432  00205E                     u2620:
  3433  00205E                     
  3434                           ;microwave.c: 621:     {;microwave.c: 622:         LCD_SendDataString("Door_St:  Closed"
      +                          );
  3435  00205E  0E45               	movlw	low STR_9
  3436  002060  6E12               	movwf	LCD_SendDataString@a_u8data_ptr^0,c
  3437  002062  0E06               	movlw	high STR_9
  3438  002064  6E13               	movwf	(LCD_SendDataString@a_u8data_ptr+1)^0,c
  3439  002066  EC0F  F014         	call	_LCD_SendDataString	;wreg free
  3440                           
  3441                           ;microwave.c: 623:     }
  3442  00206A  EF3D  F010         	goto	l3745
  3443  00206E                     l3743:
  3444                           
  3445                           ;microwave.c: 625:     {;microwave.c: 626:         LCD_SendDataString("Door_St:  Opened"
      +                          );
  3446  00206E  0E34               	movlw	low STR_25
  3447  002070  6E12               	movwf	LCD_SendDataString@a_u8data_ptr^0,c
  3448  002072  0E06               	movlw	high STR_25
  3449  002074  6E13               	movwf	(LCD_SendDataString@a_u8data_ptr+1)^0,c
  3450  002076  EC0F  F014         	call	_LCD_SendDataString	;wreg free
  3451  00207A                     l3745:
  3452                           
  3453                           ;microwave.c: 629:     LCD_SetDisplayPosition(0,4);
  3454  00207A  0E04               	movlw	4
  3455  00207C  6E0D               	movwf	LCD_SetDisplayPosition@a_u8position_Y^0,c
  3456  00207E  0E00               	movlw	0
  3457  002080  ECFA  F010         	call	_LCD_SetDisplayPosition
  3458  002084                     
  3459                           ;microwave.c: 630:     if(g_inside_microwave == MICROWAVE_IS_EMPTY)
  3460  002084  5046               	movf	_g_inside_microwave^0,w,c
  3461  002086  A4D8               	btfss	status,2,c
  3462  002088  EF48  F010         	goto	u2631
  3463  00208C  EF4A  F010         	goto	u2630
  3464  002090                     u2631:
  3465  002090  EF52  F010         	goto	l3751
  3466  002094                     u2630:
  3467  002094                     
  3468                           ;microwave.c: 631:     {;microwave.c: 632:         LCD_SendDataString("Inside_St:N_Food"
      +                          );
  3469  002094  0E67               	movlw	low STR_26
  3470  002096  6E12               	movwf	LCD_SendDataString@a_u8data_ptr^0,c
  3471  002098  0E06               	movlw	high STR_26
  3472  00209A  6E13               	movwf	(LCD_SendDataString@a_u8data_ptr+1)^0,c
  3473  00209C  EC0F  F014         	call	_LCD_SendDataString	;wreg free
  3474                           
  3475                           ;microwave.c: 633:     }
  3476  0020A0  EF58  F010         	goto	l660
  3477  0020A4                     l3751:
  3478                           
  3479                           ;microwave.c: 635:     {;microwave.c: 636:         LCD_SendDataString("Inside_St:  Food"
      +                          );
  3480  0020A4  0E56               	movlw	low STR_10
  3481  0020A6  6E12               	movwf	LCD_SendDataString@a_u8data_ptr^0,c
  3482  0020A8  0E06               	movlw	high STR_10
  3483  0020AA  6E13               	movwf	(LCD_SendDataString@a_u8data_ptr+1)^0,c
  3484  0020AC  EC0F  F014         	call	_LCD_SendDataString	;wreg free
  3485  0020B0                     l660:
  3486  0020B0  0012               	return		;funcret
  3487  0020B2                     __end_of_Home_screen_display:
  3488                           	opt callstack 0
  3489                           
  3490 ;; *************** function _Door_sensor_function *****************
  3491 ;; Defined at:
  3492 ;;		line 174 in file "microwave.c"
  3493 ;; Parameters:    Size  Location     Type
  3494 ;;		None
  3495 ;; Auto vars:     Size  Location     Type
  3496 ;;		None
  3497 ;; Return value:  Size  Location     Type
  3498 ;;                  1    wreg      void 
  3499 ;; Registers used:
  3500 ;;		wreg, fsr0l, fsr0h, status,2, status,0, tblptrl, tblptrh, tblptru, cstack
  3501 ;; Tracked objects:
  3502 ;;		On entry : 0/0
  3503 ;;		On exit  : 0/0
  3504 ;;		Unchanged: 0/0
  3505 ;; Data sizes:     COMRAM   BANK0   BANK1   BANK2   BANK3   BANK4   BANK5
  3506 ;;      Params:         0       0       0       0       0       0       0
  3507 ;;      Locals:         0       0       0       0       0       0       0
  3508 ;;      Temps:          1       0       0       0       0       0       0
  3509 ;;      Totals:         1       0       0       0       0       0       0
  3510 ;;Total ram usage:        1 bytes
  3511 ;; Hardware stack levels used:    1
  3512 ;; Hardware stack levels required when called:    8
  3513 ;; This function calls:
  3514 ;;		_GPIO_ReadFromPin
  3515 ;;		_LCD_SendDataString
  3516 ;;		_LCD_SetDisplayPosition
  3517 ;; This function is called by:
  3518 ;;		_main
  3519 ;;		_Reset_to_idle_state
  3520 ;; This function uses a non-reentrant model
  3521 ;;
  3522                           
  3523                           	psect	text21
  3524  00228C                     __ptext21:
  3525                           	opt callstack 0
  3526  00228C                     _Door_sensor_function:
  3527                           	opt callstack 21
  3528  00228C                     
  3529                           ;microwave.c: 177:     if(GPIO_ReadFromPin(1u , 4u) == 0u)
  3530  00228C  0E04               	movlw	4
  3531  00228E  6E06               	movwf	GPIO_ReadFromPin@a_u8pin^0,c
  3532  002290  0E01               	movlw	1
  3533  002292  EC70  F00D         	call	_GPIO_ReadFromPin
  3534  002296  0900               	iorlw	0
  3535  002298  A4D8               	btfss	status,2,c
  3536  00229A  EF51  F011         	goto	u2641
  3537  00229E  EF53  F011         	goto	u2640
  3538  0022A2                     u2641:
  3539  0022A2  EF8C  F011         	goto	l596
  3540  0022A6                     u2640:
  3541  0022A6                     
  3542                           ;microwave.c: 178:     {;microwave.c: 180:         _delay((unsigned long)((10)*(8000000u
      +                          /4000.0)));
  3543  0022A6  0E1A               	movlw	26
  3544  0022A8  6E14               	movwf	??_Door_sensor_function^0,c
  3545  0022AA  0EF8               	movlw	248
  3546  0022AC                     u3227:
  3547  0022AC  2EE8               	decfsz	wreg,f,c
  3548  0022AE  D7FE               	bra	u3227
  3549  0022B0  2E14               	decfsz	??_Door_sensor_function^0,f,c
  3550  0022B2  D7FC               	bra	u3227
  3551  0022B4  D000               	nop2	
  3552  0022B6                     l3757:
  3553  0022B6  0E04               	movlw	4
  3554  0022B8  6E06               	movwf	GPIO_ReadFromPin@a_u8pin^0,c
  3555  0022BA  0E01               	movlw	1
  3556  0022BC  EC70  F00D         	call	_GPIO_ReadFromPin
  3557  0022C0  0900               	iorlw	0
  3558  0022C2  B4D8               	btfsc	status,2,c
  3559  0022C4  EF66  F011         	goto	u2651
  3560  0022C8  EF68  F011         	goto	u2650
  3561  0022CC                     u2651:
  3562  0022CC  EF5B  F011         	goto	l3757
  3563  0022D0                     u2650:
  3564  0022D0                     
  3565                           ;microwave.c: 184:         if(g_door_state_t == DOOR_IS_CLOSED)
  3566  0022D0  0450               	decf	_g_door_state_t^0,w,c
  3567  0022D2  A4D8               	btfss	status,2,c
  3568  0022D4  EF6E  F011         	goto	u2661
  3569  0022D8  EF70  F011         	goto	u2660
  3570  0022DC                     u2661:
  3571  0022DC  EF7F  F011         	goto	l3767
  3572  0022E0                     u2660:
  3573  0022E0                     
  3574                           ;microwave.c: 185:         {;microwave.c: 186:             g_door_state_t = DOOR_IS_OPEN
      +                          ED;
  3575  0022E0  0E00               	movlw	0
  3576  0022E2  6E50               	movwf	_g_door_state_t^0,c
  3577  0022E4                     
  3578                           ;microwave.c: 187:             LCD_SetDisplayPosition(10,3);
  3579  0022E4  0E03               	movlw	3
  3580  0022E6  6E0D               	movwf	LCD_SetDisplayPosition@a_u8position_Y^0,c
  3581  0022E8  0E0A               	movlw	10
  3582  0022EA  ECFA  F010         	call	_LCD_SetDisplayPosition
  3583  0022EE                     
  3584                           ;microwave.c: 188:             LCD_SendDataString("Opened");
  3585  0022EE  0E3E               	movlw	low (STR_25+10)
  3586  0022F0  6E12               	movwf	LCD_SendDataString@a_u8data_ptr^0,c
  3587  0022F2  0E06               	movlw	high (STR_25+10)
  3588  0022F4  6E13               	movwf	(LCD_SendDataString@a_u8data_ptr+1)^0,c
  3589  0022F6  EC0F  F014         	call	_LCD_SendDataString	;wreg free
  3590                           
  3591                           ;microwave.c: 189:         }
  3592  0022FA  EF8C  F011         	goto	l596
  3593  0022FE                     l3767:
  3594                           
  3595                           ;microwave.c: 191:         {;microwave.c: 192:             g_door_state_t = DOOR_IS_CLOS
      +                          ED;
  3596  0022FE  0E01               	movlw	1
  3597  002300  6E50               	movwf	_g_door_state_t^0,c
  3598  002302                     
  3599                           ;microwave.c: 193:             LCD_SetDisplayPosition(10,3);
  3600  002302  0E03               	movlw	3
  3601  002304  6E0D               	movwf	LCD_SetDisplayPosition@a_u8position_Y^0,c
  3602  002306  0E0A               	movlw	10
  3603  002308  ECFA  F010         	call	_LCD_SetDisplayPosition
  3604  00230C                     
  3605                           ;microwave.c: 194:             LCD_SendDataString("Closed");
  3606  00230C  0E4F               	movlw	low (STR_9+10)
  3607  00230E  6E12               	movwf	LCD_SendDataString@a_u8data_ptr^0,c
  3608  002310  0E06               	movlw	high (STR_9+10)
  3609  002312  6E13               	movwf	(LCD_SendDataString@a_u8data_ptr+1)^0,c
  3610  002314  EC0F  F014         	call	_LCD_SendDataString	;wreg free
  3611  002318                     l596:
  3612  002318  0012               	return		;funcret
  3613  00231A                     __end_of_Door_sensor_function:
  3614                           	opt callstack 0
  3615                           
  3616 ;; *************** function _PWM_Initialization *****************
  3617 ;; Defined at:
  3618 ;;		line 44 in file "PWM.c"
  3619 ;; Parameters:    Size  Location     Type
  3620 ;;  a_PWM_channe    1    wreg     enum E10
  3621 ;; Auto vars:     Size  Location     Type
  3622 ;;  a_PWM_channe    1    5[COMRAM] enum E10
  3623 ;; Return value:  Size  Location     Type
  3624 ;;                  1    wreg      void 
  3625 ;; Registers used:
  3626 ;;		wreg, status,2, status,0
  3627 ;; Tracked objects:
  3628 ;;		On entry : 0/0
  3629 ;;		On exit  : 0/0
  3630 ;;		Unchanged: 0/0
  3631 ;; Data sizes:     COMRAM   BANK0   BANK1   BANK2   BANK3   BANK4   BANK5
  3632 ;;      Params:         0       0       0       0       0       0       0
  3633 ;;      Locals:         1       0       0       0       0       0       0
  3634 ;;      Temps:          0       0       0       0       0       0       0
  3635 ;;      Totals:         1       0       0       0       0       0       0
  3636 ;;Total ram usage:        1 bytes
  3637 ;; Hardware stack levels used:    1
  3638 ;; Hardware stack levels required when called:    3
  3639 ;; This function calls:
  3640 ;;		Nothing
  3641 ;; This function is called by:
  3642 ;;		_main
  3643 ;; This function uses a non-reentrant model
  3644 ;;
  3645                           
  3646                           	psect	text22
  3647  002A00                     __ptext22:
  3648                           	opt callstack 0
  3649  002A00                     _PWM_Initialization:
  3650                           	opt callstack 27
  3651                           
  3652                           ;incstack = 0
  3653                           ;PWM_Initialization@a_PWM_channel_t stored from wreg
  3654  002A00  6E06               	movwf	PWM_Initialization@a_PWM_channel_t^0,c
  3655  002A02                     
  3656                           ;PWM.c: 44: void PWM_Initialization(EnumPWM_channel_t a_PWM_channel_t);PWM.c: 45: {;PWM.
      +                          c: 47:     Timer2_config_t.timer_postscaler_t = TIMER2_POSTSCALER_1;
  3657  002A02  0E00               	movlw	0
  3658  002A04  6E3D               	movwf	(_Timer2_config_t+1)^0,c
  3659  002A06                     
  3660                           ;PWM.c: 49:     if(a_PWM_channel_t == PWM_CHANNEL_1)
  3661  002A06  5006               	movf	PWM_Initialization@a_PWM_channel_t^0,w,c
  3662  002A08  A4D8               	btfss	status,2,c
  3663  002A0A  EF09  F015         	goto	u2811
  3664  002A0E  EF0B  F015         	goto	u2810
  3665  002A12                     u2811:
  3666  002A12  EF0E  F015         	goto	l4067
  3667  002A16                     u2810:
  3668  002A16                     
  3669                           ;PWM.c: 50:     {;PWM.c: 51:         *(volatile uint8*)0xF94 &= ~(1 << 2);
  3670  002A16  9494               	bcf	148,2,c	;volatile
  3671                           
  3672                           ;PWM.c: 52:     }
  3673  002A18  EF0F  F015         	goto	l677
  3674  002A1C                     l4067:
  3675                           
  3676                           ;PWM.c: 57:         {;PWM.c: 58:             *(volatile uint8*)0xF94 &= ~(1 << 1);
  3677  002A1C  9294               	bcf	148,1,c	;volatile
  3678  002A1E                     l677:
  3679  002A1E  0012               	return		;funcret
  3680  002A20                     __end_of_PWM_Initialization:
  3681                           	opt callstack 0
  3682                           
  3683 ;; *************** function _PWM_Frequency *****************
  3684 ;; Defined at:
  3685 ;;		line 154 in file "PWM.c"
  3686 ;; Parameters:    Size  Location     Type
  3687 ;;  a_u32PWM_fre    4   30[COMRAM] unsigned long 
  3688 ;; Auto vars:     Size  Location     Type
  3689 ;;  u8period_reg    2   38[COMRAM] unsigned short 
  3690 ;; Return value:  Size  Location     Type
  3691 ;;                  1    wreg      void 
  3692 ;; Registers used:
  3693 ;;		wreg, status,2, status,0, cstack
  3694 ;; Tracked objects:
  3695 ;;		On entry : 0/0
  3696 ;;		On exit  : 0/0
  3697 ;;		Unchanged: 0/0
  3698 ;; Data sizes:     COMRAM   BANK0   BANK1   BANK2   BANK3   BANK4   BANK5
  3699 ;;      Params:         4       0       0       0       0       0       0
  3700 ;;      Locals:         2       0       0       0       0       0       0
  3701 ;;      Temps:          4       0       0       0       0       0       0
  3702 ;;      Totals:        10       0       0       0       0       0       0
  3703 ;;Total ram usage:       10 bytes
  3704 ;; Hardware stack levels used:    1
  3705 ;; Hardware stack levels required when called:    4
  3706 ;; This function calls:
  3707 ;;		_Timer2_Initialization
  3708 ;;		_Timer2_write_period_register
  3709 ;;		___lldiv
  3710 ;; This function is called by:
  3711 ;;		_main
  3712 ;; This function uses a non-reentrant model
  3713 ;;
  3714                           
  3715                           	psect	text23
  3716  001198                     __ptext23:
  3717                           	opt callstack 0
  3718  001198                     _PWM_Frequency:
  3719                           	opt callstack 26
  3720  001198                     
  3721                           ;PWM.c: 154: void PWM_Frequency(uint32 a_u32PWM_frequency);PWM.c: 155: {;PWM.c: 157:    
      +                           if((8000000u / (a_u32PWM_frequency * 64)) < 256)
  3722  001198  0E00               	movlw	0
  3723  00119A  6E12               	movwf	___lldiv@dividend^0,c
  3724  00119C  0E12               	movlw	18
  3725  00119E  6E13               	movwf	(___lldiv@dividend+1)^0,c
  3726  0011A0  0E7A               	movlw	122
  3727  0011A2  6E14               	movwf	(___lldiv@dividend+2)^0,c
  3728  0011A4  0E00               	movlw	0
  3729  0011A6  6E15               	movwf	(___lldiv@dividend+3)^0,c
  3730  0011A8  C01F  F023         	movff	PWM_Frequency@a_u32PWM_frequency,??_PWM_Frequency
  3731  0011AC  C020  F024         	movff	PWM_Frequency@a_u32PWM_frequency+1,??_PWM_Frequency+1
  3732  0011B0  C021  F025         	movff	PWM_Frequency@a_u32PWM_frequency+2,??_PWM_Frequency+2
  3733  0011B4  C022  F026         	movff	PWM_Frequency@a_u32PWM_frequency+3,??_PWM_Frequency+3
  3734  0011B8  0E06               	movlw	6
  3735  0011BA                     u2825:
  3736  0011BA  90D8               	bcf	status,0,c
  3737  0011BC  3623               	rlcf	??_PWM_Frequency^0,f,c
  3738  0011BE  3624               	rlcf	(??_PWM_Frequency+1)^0,f,c
  3739  0011C0  3625               	rlcf	(??_PWM_Frequency+2)^0,f,c
  3740  0011C2  3626               	rlcf	(??_PWM_Frequency+3)^0,f,c
  3741  0011C4  2EE8               	decfsz	wreg,f,c
  3742  0011C6  EFDD  F008         	goto	u2825
  3743  0011CA  C023  F016         	movff	??_PWM_Frequency,___lldiv@divisor
  3744  0011CE  C024  F017         	movff	??_PWM_Frequency+1,___lldiv@divisor+1
  3745  0011D2  C025  F018         	movff	??_PWM_Frequency+2,___lldiv@divisor+2
  3746  0011D6  C026  F019         	movff	??_PWM_Frequency+3,___lldiv@divisor+3
  3747  0011DA  EC59  F010         	call	___lldiv	;wreg free
  3748  0011DE  5015               	movf	(?___lldiv+3)^0,w,c
  3749  0011E0  1014               	iorwf	(?___lldiv+2)^0,w,c
  3750  0011E2  E106               	bnz	u2831
  3751  0011E4  0413               	decf	(?___lldiv+1)^0,w,c
  3752  0011E6  B0D8               	btfsc	status,0,c
  3753  0011E8  EFF8  F008         	goto	u2831
  3754  0011EC  EFFA  F008         	goto	u2830
  3755  0011F0                     u2831:
  3756  0011F0  EF8F  F009         	goto	l4097
  3757  0011F4                     u2830:
  3758  0011F4                     
  3759                           ;PWM.c: 158:     {;PWM.c: 160:         uint16 u8period_register_val = (8000000u / (a_u32
      +                          PWM_frequency * 4)) - 1;
  3760  0011F4  0E00               	movlw	0
  3761  0011F6  6E12               	movwf	___lldiv@dividend^0,c
  3762  0011F8  0E12               	movlw	18
  3763  0011FA  6E13               	movwf	(___lldiv@dividend+1)^0,c
  3764  0011FC  0E7A               	movlw	122
  3765  0011FE  6E14               	movwf	(___lldiv@dividend+2)^0,c
  3766  001200  0E00               	movlw	0
  3767  001202  6E15               	movwf	(___lldiv@dividend+3)^0,c
  3768  001204  C01F  F023         	movff	PWM_Frequency@a_u32PWM_frequency,??_PWM_Frequency
  3769  001208  C020  F024         	movff	PWM_Frequency@a_u32PWM_frequency+1,??_PWM_Frequency+1
  3770  00120C  C021  F025         	movff	PWM_Frequency@a_u32PWM_frequency+2,??_PWM_Frequency+2
  3771  001210  C022  F026         	movff	PWM_Frequency@a_u32PWM_frequency+3,??_PWM_Frequency+3
  3772  001214  0E02               	movlw	2
  3773  001216                     u2845:
  3774  001216  90D8               	bcf	status,0,c
  3775  001218  3623               	rlcf	??_PWM_Frequency^0,f,c
  3776  00121A  3624               	rlcf	(??_PWM_Frequency+1)^0,f,c
  3777  00121C  3625               	rlcf	(??_PWM_Frequency+2)^0,f,c
  3778  00121E  3626               	rlcf	(??_PWM_Frequency+3)^0,f,c
  3779  001220  2EE8               	decfsz	wreg,f,c
  3780  001222  EF0B  F009         	goto	u2845
  3781  001226  C023  F016         	movff	??_PWM_Frequency,___lldiv@divisor
  3782  00122A  C024  F017         	movff	??_PWM_Frequency+1,___lldiv@divisor+1
  3783  00122E  C025  F018         	movff	??_PWM_Frequency+2,___lldiv@divisor+2
  3784  001232  C026  F019         	movff	??_PWM_Frequency+3,___lldiv@divisor+3
  3785  001236  EC59  F010         	call	___lldiv	;wreg free
  3786  00123A  0EFF               	movlw	255
  3787  00123C  2412               	addwf	?___lldiv^0,w,c
  3788  00123E  6E27               	movwf	PWM_Frequency@u8period_register_val^0,c
  3789  001240  0EFF               	movlw	255
  3790  001242  2013               	addwfc	(?___lldiv+1)^0,w,c
  3791  001244  6E28               	movwf	(PWM_Frequency@u8period_register_val+1)^0,c
  3792                           
  3793                           ;PWM.c: 163:         g_u16PWM_reg_value_at_100DutyCycle = 8000000u / a_u32PWM_frequency;
  3794  001246  0E00               	movlw	0
  3795  001248  6E12               	movwf	___lldiv@dividend^0,c
  3796  00124A  0E12               	movlw	18
  3797  00124C  6E13               	movwf	(___lldiv@dividend+1)^0,c
  3798  00124E  0E7A               	movlw	122
  3799  001250  6E14               	movwf	(___lldiv@dividend+2)^0,c
  3800  001252  0E00               	movlw	0
  3801  001254  6E15               	movwf	(___lldiv@dividend+3)^0,c
  3802  001256  C01F  F016         	movff	PWM_Frequency@a_u32PWM_frequency,___lldiv@divisor
  3803  00125A  C020  F017         	movff	PWM_Frequency@a_u32PWM_frequency+1,___lldiv@divisor+1
  3804  00125E  C021  F018         	movff	PWM_Frequency@a_u32PWM_frequency+2,___lldiv@divisor+2
  3805  001262  C022  F019         	movff	PWM_Frequency@a_u32PWM_frequency+3,___lldiv@divisor+3
  3806  001266  EC59  F010         	call	___lldiv	;wreg free
  3807  00126A  C012  F03A         	movff	?___lldiv,_g_u16PWM_reg_value_at_100DutyCycle
  3808  00126E  C013  F03B         	movff	?___lldiv+1,_g_u16PWM_reg_value_at_100DutyCycle+1
  3809  001272                     
  3810                           ;PWM.c: 165:         if(u8period_register_val <= 255)
  3811  001272  0428               	decf	(PWM_Frequency@u8period_register_val+1)^0,w,c
  3812  001274  B0D8               	btfsc	status,0,c
  3813  001276  EF3F  F009         	goto	u2851
  3814  00127A  EF41  F009         	goto	u2850
  3815  00127E                     u2851:
  3816  00127E  EF48  F009         	goto	l4081
  3817  001282                     u2850:
  3818  001282                     
  3819                           ;PWM.c: 166:         {;PWM.c: 168:             Timer2_config_t.timer_prescaler_t = TIMER
      +                          2_NO_PRESCALER;
  3820  001282  0E00               	movlw	0
  3821  001284  6E3C               	movwf	_Timer2_config_t^0,c
  3822  001286                     
  3823                           ;PWM.c: 170:             Timer2_write_period_register(u8period_register_val);
  3824  001286  5027               	movf	PWM_Frequency@u8period_register_val^0,w,c
  3825  001288  EC44  F015         	call	_Timer2_write_period_register
  3826                           
  3827                           ;PWM.c: 171:         }
  3828  00128C  EF8B  F009         	goto	l4095
  3829  001290                     l4081:
  3830  001290  C027  F023         	movff	PWM_Frequency@u8period_register_val,??_PWM_Frequency
  3831  001294  C028  F024         	movff	PWM_Frequency@u8period_register_val+1,??_PWM_Frequency+1
  3832  001298  90D8               	bcf	status,0,c
  3833  00129A  3224               	rrcf	(??_PWM_Frequency+1)^0,f,c
  3834  00129C  3223               	rrcf	??_PWM_Frequency^0,f,c
  3835  00129E  90D8               	bcf	status,0,c
  3836  0012A0  3224               	rrcf	(??_PWM_Frequency+1)^0,f,c
  3837  0012A2  3223               	rrcf	??_PWM_Frequency^0,f,c
  3838  0012A4  0424               	decf	(??_PWM_Frequency+1)^0,w,c
  3839  0012A6  B0D8               	btfsc	status,0,c
  3840  0012A8  EF58  F009         	goto	u2861
  3841  0012AC  EF5A  F009         	goto	u2860
  3842  0012B0                     u2861:
  3843  0012B0  EF71  F009         	goto	l4089
  3844  0012B4                     u2860:
  3845  0012B4                     
  3846                           ;PWM.c: 174:         {;PWM.c: 177:             g_u16PWM_reg_value_at_100DutyCycle /= 4;
  3847  0012B4  90D8               	bcf	status,0,c
  3848  0012B6  323B               	rrcf	(_g_u16PWM_reg_value_at_100DutyCycle+1)^0,f,c
  3849  0012B8  323A               	rrcf	_g_u16PWM_reg_value_at_100DutyCycle^0,f,c
  3850  0012BA  90D8               	bcf	status,0,c
  3851  0012BC  323B               	rrcf	(_g_u16PWM_reg_value_at_100DutyCycle+1)^0,f,c
  3852  0012BE  323A               	rrcf	_g_u16PWM_reg_value_at_100DutyCycle^0,f,c
  3853  0012C0                     
  3854                           ;PWM.c: 179:             Timer2_config_t.timer_prescaler_t = TIMER2_PRESCALER_4;
  3855  0012C0  0E01               	movlw	1
  3856  0012C2  6E3C               	movwf	_Timer2_config_t^0,c
  3857  0012C4                     
  3858                           ;PWM.c: 181:             Timer2_write_period_register(u8period_register_val / 4);
  3859  0012C4  C027  F023         	movff	PWM_Frequency@u8period_register_val,??_PWM_Frequency
  3860  0012C8  C028  F024         	movff	PWM_Frequency@u8period_register_val+1,??_PWM_Frequency+1
  3861  0012CC  90D8               	bcf	status,0,c
  3862  0012CE  3224               	rrcf	(??_PWM_Frequency+1)^0,f,c
  3863  0012D0  3223               	rrcf	??_PWM_Frequency^0,f,c
  3864  0012D2  90D8               	bcf	status,0,c
  3865  0012D4  3224               	rrcf	(??_PWM_Frequency+1)^0,f,c
  3866  0012D6  3223               	rrcf	??_PWM_Frequency^0,f,c
  3867  0012D8  5023               	movf	??_PWM_Frequency^0,w,c
  3868  0012DA  EC44  F015         	call	_Timer2_write_period_register
  3869                           
  3870                           ;PWM.c: 182:         }
  3871  0012DE  EF8B  F009         	goto	l4095
  3872  0012E2                     l4089:
  3873                           
  3874                           ;PWM.c: 185:         {;PWM.c: 188:             g_u16PWM_reg_value_at_100DutyCycle /= 16;
  3875  0012E2  3A3A               	swapf	_g_u16PWM_reg_value_at_100DutyCycle^0,f,c
  3876  0012E4  3A3B               	swapf	(_g_u16PWM_reg_value_at_100DutyCycle+1)^0,f,c
  3877  0012E6  0E0F               	movlw	15
  3878  0012E8  163A               	andwf	_g_u16PWM_reg_value_at_100DutyCycle^0,f,c
  3879  0012EA  503B               	movf	(_g_u16PWM_reg_value_at_100DutyCycle+1)^0,w,c
  3880  0012EC  0BF0               	andlw	240
  3881  0012EE  123A               	iorwf	_g_u16PWM_reg_value_at_100DutyCycle^0,f,c
  3882  0012F0  0E0F               	movlw	15
  3883  0012F2  163B               	andwf	(_g_u16PWM_reg_value_at_100DutyCycle+1)^0,f,c
  3884  0012F4                     
  3885                           ;PWM.c: 190:             Timer2_config_t.timer_prescaler_t = TIMER2_PRESCALER_16;
  3886  0012F4  0E02               	movlw	2
  3887  0012F6  6E3C               	movwf	_Timer2_config_t^0,c
  3888  0012F8                     
  3889                           ;PWM.c: 192:             Timer2_write_period_register(u8period_register_val / 16);
  3890  0012F8  C027  F023         	movff	PWM_Frequency@u8period_register_val,??_PWM_Frequency
  3891  0012FC  C028  F024         	movff	PWM_Frequency@u8period_register_val+1,??_PWM_Frequency+1
  3892  001300  0E04               	movlw	4
  3893  001302  6E25               	movwf	(??_PWM_Frequency+2)^0,c
  3894  001304                     u2875:
  3895  001304  90D8               	bcf	status,0,c
  3896  001306  3224               	rrcf	(??_PWM_Frequency+1)^0,f,c
  3897  001308  3223               	rrcf	??_PWM_Frequency^0,f,c
  3898  00130A  2E25               	decfsz	(??_PWM_Frequency+2)^0,f,c
  3899  00130C  EF82  F009         	goto	u2875
  3900  001310  5023               	movf	??_PWM_Frequency^0,w,c
  3901  001312  EC44  F015         	call	_Timer2_write_period_register
  3902  001316                     l4095:
  3903                           
  3904                           ;PWM.c: 195:         Timer2_Initialization();
  3905  001316  EC24  F015         	call	_Timer2_Initialization	;wreg free
  3906                           
  3907                           ;PWM.c: 196:     }
  3908  00131A  EF93  F009         	goto	l698
  3909  00131E                     l4097:
  3910                           
  3911                           ;PWM.c: 198:     {;PWM.c: 200:         g_u16PWM_reg_value_at_100DutyCycle = 0;
  3912  00131E  0E00               	movlw	0
  3913  001320  6E3B               	movwf	(_g_u16PWM_reg_value_at_100DutyCycle+1)^0,c
  3914  001322  0E00               	movlw	0
  3915  001324  6E3A               	movwf	_g_u16PWM_reg_value_at_100DutyCycle^0,c
  3916  001326                     l698:
  3917  001326  0012               	return		;funcret
  3918  001328                     __end_of_PWM_Frequency:
  3919                           	opt callstack 0
  3920                           
  3921 ;; *************** function ___lldiv *****************
  3922 ;; Defined at:
  3923 ;;		line 7 in file "C:\Program Files (x86)\Microchip\xc8\v2.10\pic\sources\c99\common\__lldiv.c"
  3924 ;; Parameters:    Size  Location     Type
  3925 ;;  dividend        4   17[COMRAM] unsigned long 
  3926 ;;  divisor         4   21[COMRAM] unsigned long 
  3927 ;; Auto vars:     Size  Location     Type
  3928 ;;  quotient        4   25[COMRAM] unsigned long 
  3929 ;;  counter         1   29[COMRAM] unsigned char 
  3930 ;; Return value:  Size  Location     Type
  3931 ;;                  4   17[COMRAM] unsigned long 
  3932 ;; Registers used:
  3933 ;;		wreg, status,2, status,0
  3934 ;; Tracked objects:
  3935 ;;		On entry : 0/0
  3936 ;;		On exit  : 0/0
  3937 ;;		Unchanged: 0/0
  3938 ;; Data sizes:     COMRAM   BANK0   BANK1   BANK2   BANK3   BANK4   BANK5
  3939 ;;      Params:         8       0       0       0       0       0       0
  3940 ;;      Locals:         5       0       0       0       0       0       0
  3941 ;;      Temps:          0       0       0       0       0       0       0
  3942 ;;      Totals:        13       0       0       0       0       0       0
  3943 ;;Total ram usage:       13 bytes
  3944 ;; Hardware stack levels used:    1
  3945 ;; Hardware stack levels required when called:    3
  3946 ;; This function calls:
  3947 ;;		Nothing
  3948 ;; This function is called by:
  3949 ;;		_LCD_DisplaNumber
  3950 ;;		_PWM_Frequency
  3951 ;;		_PWM_DutyCycle
  3952 ;; This function uses a non-reentrant model
  3953 ;;
  3954                           
  3955                           	psect	text24
  3956  0020B2                     __ptext24:
  3957                           	opt callstack 0
  3958  0020B2                     ___lldiv:
  3959                           	opt callstack 25
  3960  0020B2  0E00               	movlw	0
  3961  0020B4  6E1A               	movwf	___lldiv@quotient^0,c
  3962  0020B6  0E00               	movlw	0
  3963  0020B8  6E1B               	movwf	(___lldiv@quotient+1)^0,c
  3964  0020BA  0E00               	movlw	0
  3965  0020BC  6E1C               	movwf	(___lldiv@quotient+2)^0,c
  3966  0020BE  0E00               	movlw	0
  3967  0020C0  6E1D               	movwf	(___lldiv@quotient+3)^0,c
  3968  0020C2  5016               	movf	___lldiv@divisor^0,w,c
  3969  0020C4  1017               	iorwf	(___lldiv@divisor+1)^0,w,c
  3970  0020C6  1018               	iorwf	(___lldiv@divisor+2)^0,w,c
  3971  0020C8  1019               	iorwf	(___lldiv@divisor+3)^0,w,c
  3972  0020CA  B4D8               	btfsc	status,2,c
  3973  0020CC  EF6A  F010         	goto	u2401
  3974  0020D0  EF6C  F010         	goto	u2400
  3975  0020D4                     u2401:
  3976  0020D4  EFA2  F010         	goto	l797
  3977  0020D8                     u2400:
  3978  0020D8  0E01               	movlw	1
  3979  0020DA  6E1E               	movwf	___lldiv@counter^0,c
  3980  0020DC  EF76  F010         	goto	l3571
  3981  0020E0                     l3569:
  3982  0020E0  90D8               	bcf	status,0,c
  3983  0020E2  3616               	rlcf	___lldiv@divisor^0,f,c
  3984  0020E4  3617               	rlcf	(___lldiv@divisor+1)^0,f,c
  3985  0020E6  3618               	rlcf	(___lldiv@divisor+2)^0,f,c
  3986  0020E8  3619               	rlcf	(___lldiv@divisor+3)^0,f,c
  3987  0020EA  2A1E               	incf	___lldiv@counter^0,f,c
  3988  0020EC                     l3571:
  3989  0020EC  AE19               	btfss	(___lldiv@divisor+3)^0,7,c
  3990  0020EE  EF7B  F010         	goto	u2411
  3991  0020F2  EF7D  F010         	goto	u2410
  3992  0020F6                     u2411:
  3993  0020F6  EF70  F010         	goto	l3569
  3994  0020FA                     u2410:
  3995  0020FA                     l3573:
  3996  0020FA  90D8               	bcf	status,0,c
  3997  0020FC  361A               	rlcf	___lldiv@quotient^0,f,c
  3998  0020FE  361B               	rlcf	(___lldiv@quotient+1)^0,f,c
  3999  002100  361C               	rlcf	(___lldiv@quotient+2)^0,f,c
  4000  002102  361D               	rlcf	(___lldiv@quotient+3)^0,f,c
  4001  002104  5016               	movf	___lldiv@divisor^0,w,c
  4002  002106  5C12               	subwf	___lldiv@dividend^0,w,c
  4003  002108  5017               	movf	(___lldiv@divisor+1)^0,w,c
  4004  00210A  5813               	subwfb	(___lldiv@dividend+1)^0,w,c
  4005  00210C  5018               	movf	(___lldiv@divisor+2)^0,w,c
  4006  00210E  5814               	subwfb	(___lldiv@dividend+2)^0,w,c
  4007  002110  5019               	movf	(___lldiv@divisor+3)^0,w,c
  4008  002112  5815               	subwfb	(___lldiv@dividend+3)^0,w,c
  4009  002114  A0D8               	btfss	status,0,c
  4010  002116  EF8F  F010         	goto	u2421
  4011  00211A  EF91  F010         	goto	u2420
  4012  00211E                     u2421:
  4013  00211E  EF9A  F010         	goto	l3581
  4014  002122                     u2420:
  4015  002122  5016               	movf	___lldiv@divisor^0,w,c
  4016  002124  5E12               	subwf	___lldiv@dividend^0,f,c
  4017  002126  5017               	movf	(___lldiv@divisor+1)^0,w,c
  4018  002128  5A13               	subwfb	(___lldiv@dividend+1)^0,f,c
  4019  00212A  5018               	movf	(___lldiv@divisor+2)^0,w,c
  4020  00212C  5A14               	subwfb	(___lldiv@dividend+2)^0,f,c
  4021  00212E  5019               	movf	(___lldiv@divisor+3)^0,w,c
  4022  002130  5A15               	subwfb	(___lldiv@dividend+3)^0,f,c
  4023  002132  801A               	bsf	___lldiv@quotient^0,0,c
  4024  002134                     l3581:
  4025  002134  90D8               	bcf	status,0,c
  4026  002136  3219               	rrcf	(___lldiv@divisor+3)^0,f,c
  4027  002138  3218               	rrcf	(___lldiv@divisor+2)^0,f,c
  4028  00213A  3217               	rrcf	(___lldiv@divisor+1)^0,f,c
  4029  00213C  3216               	rrcf	___lldiv@divisor^0,f,c
  4030  00213E  2E1E               	decfsz	___lldiv@counter^0,f,c
  4031  002140  EF7D  F010         	goto	l3573
  4032  002144                     l797:
  4033  002144  C01A  F012         	movff	___lldiv@quotient,?___lldiv
  4034  002148  C01B  F013         	movff	___lldiv@quotient+1,?___lldiv+1
  4035  00214C  C01C  F014         	movff	___lldiv@quotient+2,?___lldiv+2
  4036  002150  C01D  F015         	movff	___lldiv@quotient+3,?___lldiv+3
  4037  002154  0012               	return		;funcret
  4038  002156                     __end_of___lldiv:
  4039                           	opt callstack 0
  4040                           
  4041 ;; *************** function _Timer2_write_period_register *****************
  4042 ;; Defined at:
  4043 ;;		line 539 in file "timers.c"
  4044 ;; Parameters:    Size  Location     Type
  4045 ;;  a_u8init_val    1    wreg     unsigned char 
  4046 ;; Auto vars:     Size  Location     Type
  4047 ;;  a_u8init_val    1    5[COMRAM] unsigned char 
  4048 ;; Return value:  Size  Location     Type
  4049 ;;                  1    wreg      void 
  4050 ;; Registers used:
  4051 ;;		wreg
  4052 ;; Tracked objects:
  4053 ;;		On entry : 0/0
  4054 ;;		On exit  : 0/0
  4055 ;;		Unchanged: 0/0
  4056 ;; Data sizes:     COMRAM   BANK0   BANK1   BANK2   BANK3   BANK4   BANK5
  4057 ;;      Params:         0       0       0       0       0       0       0
  4058 ;;      Locals:         1       0       0       0       0       0       0
  4059 ;;      Temps:          0       0       0       0       0       0       0
  4060 ;;      Totals:         1       0       0       0       0       0       0
  4061 ;;Total ram usage:        1 bytes
  4062 ;; Hardware stack levels used:    1
  4063 ;; Hardware stack levels required when called:    3
  4064 ;; This function calls:
  4065 ;;		Nothing
  4066 ;; This function is called by:
  4067 ;;		_PWM_Frequency
  4068 ;; This function uses a non-reentrant model
  4069 ;;
  4070                           
  4071                           	psect	text25
  4072  002A88                     __ptext25:
  4073                           	opt callstack 0
  4074  002A88                     _Timer2_write_period_register:
  4075                           	opt callstack 26
  4076                           
  4077                           ;incstack = 0
  4078                           ;Timer2_write_period_register@a_u8init_value_for_period_register stored from wreg
  4079  002A88  6E06               	movwf	Timer2_write_period_register@a_u8init_value_for_period_register^0,c
  4080  002A8A                     
  4081                           ;timers.c: 539: void Timer2_write_period_register(uint8 a_u8init_value_for_period_regist
      +                          er);timers.c: 540: {;timers.c: 541:     *(volatile uint8*)0xFCB = a_u8init_value_for_per
      +                          iod_register;
  4082  002A8A  C006  FFCB         	movff	Timer2_write_period_register@a_u8init_value_for_period_register,4043	;volatile
  4083  002A8E  0012               	return		;funcret
  4084  002A90                     __end_of_Timer2_write_period_register:
  4085                           	opt callstack 0
  4086                           
  4087 ;; *************** function _Timer2_Initialization *****************
  4088 ;; Defined at:
  4089 ;;		line 437 in file "timers.c"
  4090 ;; Parameters:    Size  Location     Type
  4091 ;;		None
  4092 ;; Auto vars:     Size  Location     Type
  4093 ;;		None
  4094 ;; Return value:  Size  Location     Type
  4095 ;;                  1    wreg      void 
  4096 ;; Registers used:
  4097 ;;		wreg, status,2, status,0
  4098 ;; Tracked objects:
  4099 ;;		On entry : 0/0
  4100 ;;		On exit  : 0/0
  4101 ;;		Unchanged: 0/0
  4102 ;; Data sizes:     COMRAM   BANK0   BANK1   BANK2   BANK3   BANK4   BANK5
  4103 ;;      Params:         0       0       0       0       0       0       0
  4104 ;;      Locals:         0       0       0       0       0       0       0
  4105 ;;      Temps:          0       0       0       0       0       0       0
  4106 ;;      Totals:         0       0       0       0       0       0       0
  4107 ;;Total ram usage:        0 bytes
  4108 ;; Hardware stack levels used:    1
  4109 ;; Hardware stack levels required when called:    3
  4110 ;; This function calls:
  4111 ;;		Nothing
  4112 ;; This function is called by:
  4113 ;;		_PWM_Frequency
  4114 ;; This function uses a non-reentrant model
  4115 ;;
  4116                           
  4117                           	psect	text26
  4118  002A48                     __ptext26:
  4119                           	opt callstack 0
  4120  002A48                     _Timer2_Initialization:
  4121                           	opt callstack 26
  4122  002A48                     
  4123                           ;timers.c: 440:     *(volatile uint8*)0xFCA = Timer2_config_t.timer_postscaler_t << 3;
  4124  002A48  383D               	swapf	(_Timer2_config_t+1)^0,w,c
  4125  002A4A  42E8               	rrncf	wreg,f,c
  4126  002A4C  0BF8               	andlw	248
  4127  002A4E  6ECA               	movwf	202,c	;volatile
  4128                           
  4129                           ;timers.c: 442:     *(volatile uint8*)0xFCA |= Timer2_config_t.timer_prescaler_t;
  4130  002A50  503C               	movf	_Timer2_config_t^0,w,c
  4131  002A52  12CA               	iorwf	202,f,c	;volatile
  4132  002A54  0012               	return		;funcret
  4133  002A56                     __end_of_Timer2_Initialization:
  4134                           	opt callstack 0
  4135                           
  4136 ;; *************** function _LCD_Initialization *****************
  4137 ;; Defined at:
  4138 ;;		line 42 in file "LCD.c"
  4139 ;; Parameters:    Size  Location     Type
  4140 ;;		None
  4141 ;; Auto vars:     Size  Location     Type
  4142 ;;		None
  4143 ;; Return value:  Size  Location     Type
  4144 ;;                  1    wreg      void 
  4145 ;; Registers used:
  4146 ;;		wreg, status,2, status,0, cstack
  4147 ;; Tracked objects:
  4148 ;;		On entry : 0/0
  4149 ;;		On exit  : 0/0
  4150 ;;		Unchanged: 0/0
  4151 ;; Data sizes:     COMRAM   BANK0   BANK1   BANK2   BANK3   BANK4   BANK5
  4152 ;;      Params:         0       0       0       0       0       0       0
  4153 ;;      Locals:         0       0       0       0       0       0       0
  4154 ;;      Temps:          0       0       0       0       0       0       0
  4155 ;;      Totals:         0       0       0       0       0       0       0
  4156 ;;Total ram usage:        0 bytes
  4157 ;; Hardware stack levels used:    1
  4158 ;; Hardware stack levels required when called:    5
  4159 ;; This function calls:
  4160 ;;		_GPIO_SetPinDirection
  4161 ;;		_GPIO_WriteOnPin
  4162 ;;		_GPIO_WriteOnPort
  4163 ;;		_LCD_SendCommand
  4164 ;; This function is called by:
  4165 ;;		_main
  4166 ;; This function uses a non-reentrant model
  4167 ;;
  4168                           
  4169                           	psect	text27
  4170  001CC2                     __ptext27:
  4171                           	opt callstack 0
  4172  001CC2                     _LCD_Initialization:
  4173                           	opt callstack 25
  4174  001CC2                     
  4175                           ;LCD.c: 48:     GPIO_SetPinDirection(3u , 4u , 0u);
  4176  001CC2  0E04               	movlw	4
  4177  001CC4  6E06               	movwf	GPIO_SetPinDirection@a_u8pin^0,c
  4178  001CC6  0E00               	movlw	0
  4179  001CC8  6E07               	movwf	GPIO_SetPinDirection@a_u8direction^0,c
  4180  001CCA  0E03               	movlw	3
  4181  001CCC  EC4D  F005         	call	_GPIO_SetPinDirection
  4182                           
  4183                           ;LCD.c: 49:     GPIO_SetPinDirection(3u , 5u , 0u);
  4184  001CD0  0E05               	movlw	5
  4185  001CD2  6E06               	movwf	GPIO_SetPinDirection@a_u8pin^0,c
  4186  001CD4  0E00               	movlw	0
  4187  001CD6  6E07               	movwf	GPIO_SetPinDirection@a_u8direction^0,c
  4188  001CD8  0E03               	movlw	3
  4189  001CDA  EC4D  F005         	call	_GPIO_SetPinDirection
  4190                           
  4191                           ;LCD.c: 50:     GPIO_SetPinDirection(3u , 6u , 0u);
  4192  001CDE  0E06               	movlw	6
  4193  001CE0  6E06               	movwf	GPIO_SetPinDirection@a_u8pin^0,c
  4194  001CE2  0E00               	movlw	0
  4195  001CE4  6E07               	movwf	GPIO_SetPinDirection@a_u8direction^0,c
  4196  001CE6  0E03               	movlw	3
  4197  001CE8  EC4D  F005         	call	_GPIO_SetPinDirection
  4198                           
  4199                           ;LCD.c: 51:     GPIO_SetPinDirection(3u , 7u , 0u);
  4200  001CEC  0E07               	movlw	7
  4201  001CEE  6E06               	movwf	GPIO_SetPinDirection@a_u8pin^0,c
  4202  001CF0  0E00               	movlw	0
  4203  001CF2  6E07               	movwf	GPIO_SetPinDirection@a_u8direction^0,c
  4204  001CF4  0E03               	movlw	3
  4205  001CF6  EC4D  F005         	call	_GPIO_SetPinDirection
  4206                           
  4207                           ;LCD.c: 53:     GPIO_SetPinDirection(4u , 2u , 0u);
  4208  001CFA  0E02               	movlw	2
  4209  001CFC  6E06               	movwf	GPIO_SetPinDirection@a_u8pin^0,c
  4210  001CFE  0E00               	movlw	0
  4211  001D00  6E07               	movwf	GPIO_SetPinDirection@a_u8direction^0,c
  4212  001D02  0E04               	movlw	4
  4213  001D04  EC4D  F005         	call	_GPIO_SetPinDirection
  4214                           
  4215                           ;LCD.c: 54:     GPIO_SetPinDirection(4u , 0u , 0u);
  4216  001D08  0E00               	movlw	0
  4217  001D0A  6E06               	movwf	GPIO_SetPinDirection@a_u8pin^0,c
  4218  001D0C  0E00               	movlw	0
  4219  001D0E  6E07               	movwf	GPIO_SetPinDirection@a_u8direction^0,c
  4220  001D10  0E04               	movlw	4
  4221  001D12  EC4D  F005         	call	_GPIO_SetPinDirection
  4222                           
  4223                           ;LCD.c: 55:     GPIO_SetPinDirection(4u , 1u , 0u);
  4224  001D16  0E01               	movlw	1
  4225  001D18  6E06               	movwf	GPIO_SetPinDirection@a_u8pin^0,c
  4226  001D1A  0E00               	movlw	0
  4227  001D1C  6E07               	movwf	GPIO_SetPinDirection@a_u8direction^0,c
  4228  001D1E  0E04               	movlw	4
  4229  001D20  EC4D  F005         	call	_GPIO_SetPinDirection
  4230                           
  4231                           ;LCD.c: 62:     GPIO_WriteOnPin(4u , 2u , 0u);
  4232  001D24  0E02               	movlw	2
  4233  001D26  6E06               	movwf	GPIO_WriteOnPin@a_u8pin^0,c
  4234  001D28  0E00               	movlw	0
  4235  001D2A  6E07               	movwf	GPIO_WriteOnPin@a_u8value^0,c
  4236  001D2C  0E04               	movlw	4
  4237  001D2E  EC9A  F006         	call	_GPIO_WriteOnPin
  4238                           
  4239                           ;LCD.c: 63:     GPIO_WriteOnPin(4u , 0u , 0u);
  4240  001D32  0E00               	movlw	0
  4241  001D34  6E06               	movwf	GPIO_WriteOnPin@a_u8pin^0,c
  4242  001D36  0E00               	movlw	0
  4243  001D38  6E07               	movwf	GPIO_WriteOnPin@a_u8value^0,c
  4244  001D3A  0E04               	movlw	4
  4245  001D3C  EC9A  F006         	call	_GPIO_WriteOnPin
  4246                           
  4247                           ;LCD.c: 64:     GPIO_WriteOnPin(4u , 1u , 1u);
  4248  001D40  0E01               	movlw	1
  4249  001D42  6E06               	movwf	GPIO_WriteOnPin@a_u8pin^0,c
  4250  001D44  0E01               	movlw	1
  4251  001D46  6E07               	movwf	GPIO_WriteOnPin@a_u8value^0,c
  4252  001D48  0E04               	movlw	4
  4253  001D4A  EC9A  F006         	call	_GPIO_WriteOnPin
  4254                           
  4255                           ;LCD.c: 65:     GPIO_WriteOnPort(3u , 0x28);
  4256  001D4E  0E28               	movlw	40
  4257  001D50  6E06               	movwf	GPIO_WriteOnPort@a_u8value^0,c
  4258  001D52  0E03               	movlw	3
  4259  001D54  EC8D  F011         	call	_GPIO_WriteOnPort
  4260                           
  4261                           ;LCD.c: 66:     GPIO_WriteOnPin(4u , 1u , 0u);
  4262  001D58  0E01               	movlw	1
  4263  001D5A  6E06               	movwf	GPIO_WriteOnPin@a_u8pin^0,c
  4264  001D5C  0E00               	movlw	0
  4265  001D5E  6E07               	movwf	GPIO_WriteOnPin@a_u8value^0,c
  4266  001D60  0E04               	movlw	4
  4267  001D62  EC9A  F006         	call	_GPIO_WriteOnPin
  4268  001D66                     
  4269                           ;LCD.c: 67:  _delay((unsigned long)((5)*(8000000/4000000.0)));
  4270  001D66  0E03               	movlw	3
  4271  001D68                     u3237:
  4272  001D68  2EE8               	decfsz	wreg,f,c
  4273  001D6A  D7FE               	bra	u3237
  4274  001D6C  F000               	nop	
  4275  001D6E                     
  4276                           ;LCD.c: 68:     GPIO_WriteOnPin(4u , 1u , 1u);
  4277  001D6E  0E01               	movlw	1
  4278  001D70  6E06               	movwf	GPIO_WriteOnPin@a_u8pin^0,c
  4279  001D72  0E01               	movlw	1
  4280  001D74  6E07               	movwf	GPIO_WriteOnPin@a_u8value^0,c
  4281  001D76  0E04               	movlw	4
  4282  001D78  EC9A  F006         	call	_GPIO_WriteOnPin
  4283                           
  4284                           ;LCD.c: 69:  _delay((unsigned long)((10)*(8000000/4000000.0)));
  4285  001D7C  0E06               	movlw	6
  4286  001D7E                     u3247:
  4287  001D7E  2EE8               	decfsz	wreg,f,c
  4288  001D80  D7FE               	bra	u3247
  4289  001D82  D000               	nop2	
  4290  001D84                     
  4291                           ;LCD.c: 70:     LCD_SendCommand(0x28);
  4292  001D84  0E28               	movlw	40
  4293  001D86  EC43  F00F         	call	_LCD_SendCommand
  4294  001D8A                     
  4295                           ;LCD.c: 72:     _delay((unsigned long)((1)*(8000000/4000000.0)));
  4296  001D8A  D000               	nop2		;2 cycle nop
  4297  001D8C                     
  4298                           ;LCD.c: 73:     LCD_SendCommand(0x0C);
  4299  001D8C  0E0C               	movlw	12
  4300  001D8E  EC43  F00F         	call	_LCD_SendCommand
  4301  001D92                     
  4302                           ;LCD.c: 74:     _delay((unsigned long)((1)*(8000000/4000000.0)));
  4303  001D92  D000               	nop2		;2 cycle nop
  4304  001D94                     
  4305                           ;LCD.c: 75:     LCD_SendCommand(0x01);
  4306  001D94  0E01               	movlw	1
  4307  001D96  EC43  F00F         	call	_LCD_SendCommand
  4308  001D9A                     
  4309                           ;LCD.c: 76:     _delay((unsigned long)((15)*(8000000/4000000.0)));
  4310  001D9A  0E0A               	movlw	10
  4311  001D9C                     u3257:
  4312  001D9C  2EE8               	decfsz	wreg,f,c
  4313  001D9E  D7FE               	bra	u3257
  4314                           
  4315                           ;LCD.c: 77:     LCD_SendCommand(0x06);
  4316  001DA0  0E06               	movlw	6
  4317  001DA2  EC43  F00F         	call	_LCD_SendCommand
  4318  001DA6                     
  4319                           ;LCD.c: 78:     _delay((unsigned long)((2)*(8000000/4000000.0)));
  4320  001DA6  D000               	nop2		;2 cycle nop
  4321  001DA8  D000               	nop2		;2 cycle nop
  4322  001DAA  0012               	return		;funcret
  4323  001DAC                     __end_of_LCD_Initialization:
  4324                           	opt callstack 0
  4325                           
  4326 ;; *************** function _If_heating_is_canceled_function *****************
  4327 ;; Defined at:
  4328 ;;		line 430 in file "microwave.c"
  4329 ;; Parameters:    Size  Location     Type
  4330 ;;		None
  4331 ;; Auto vars:     Size  Location     Type
  4332 ;;		None
  4333 ;; Return value:  Size  Location     Type
  4334 ;;                  1    wreg      void 
  4335 ;; Registers used:
  4336 ;;		wreg, fsr0l, fsr0h, status,2, status,0, tblptrl, tblptrh, tblptru, cstack
  4337 ;; Tracked objects:
  4338 ;;		On entry : 0/0
  4339 ;;		On exit  : 0/0
  4340 ;;		Unchanged: 0/0
  4341 ;; Data sizes:     COMRAM   BANK0   BANK1   BANK2   BANK3   BANK4   BANK5
  4342 ;;      Params:         0       0       0       0       0       0       0
  4343 ;;      Locals:         0       0       0       0       0       0       0
  4344 ;;      Temps:          0       0       0       0       0       0       0
  4345 ;;      Totals:         0       0       0       0       0       0       0
  4346 ;;Total ram usage:        0 bytes
  4347 ;; Hardware stack levels used:    1
  4348 ;; Hardware stack levels required when called:    8
  4349 ;; This function calls:
  4350 ;;		_GPIO_WriteOnPin
  4351 ;;		_Global_interrupt_disable
  4352 ;;		_KeyPad_Initialization
  4353 ;;		_KeyPad_getPressedKey
  4354 ;;		_LCD_SendDataString
  4355 ;;		_LCD_SetDisplayPosition
  4356 ;;		_PWM_Stop
  4357 ;;		_Timer0_disable
  4358 ;;		_Timer0_disable_overflow_interrupt
  4359 ;; This function is called by:
  4360 ;;		_main
  4361 ;; This function uses a non-reentrant model
  4362 ;;
  4363                           
  4364                           	psect	text28
  4365  0024B0                     __ptext28:
  4366                           	opt callstack 0
  4367  0024B0                     _If_heating_is_canceled_function:
  4368                           	opt callstack 22
  4369  0024B0                     
  4370                           ;microwave.c: 434:     KeyPad_Initialization();
  4371  0024B0  EC6D  F014         	call	_KeyPad_Initialization	;wreg free
  4372                           
  4373                           ;microwave.c: 436:     g_u8keypad_button_val = KeyPad_getPressedKey();
  4374  0024B4  ECA6  F00F         	call	_KeyPad_getPressedKey	;wreg free
  4375  0024B8  6E4F               	movwf	_g_u8keypad_button_val^0,c
  4376  0024BA                     
  4377                           ;microwave.c: 438:     if(g_u8keypad_button_val == '#')
  4378  0024BA  0E23               	movlw	35
  4379  0024BC  184F               	xorwf	_g_u8keypad_button_val^0,w,c
  4380  0024BE  A4D8               	btfss	status,2,c
  4381  0024C0  EF64  F012         	goto	u3071
  4382  0024C4  EF66  F012         	goto	u3070
  4383  0024C8                     u3071:
  4384  0024C8  EF95  F012         	goto	l631
  4385  0024CC                     u3070:
  4386  0024CC                     
  4387                           ;microwave.c: 439:     {;microwave.c: 442:         g_system_state_var_t = SYSTEM_IDLE_ST
      +                          ATE;
  4388  0024CC  0E00               	movlw	0
  4389  0024CE  6E48               	movwf	_g_system_state_var_t^0,c
  4390  0024D0                     
  4391                           ;microwave.c: 444:         GPIO_WriteOnPin(2u , 5u , 0u);
  4392  0024D0  0E05               	movlw	5
  4393  0024D2  6E06               	movwf	GPIO_WriteOnPin@a_u8pin^0,c
  4394  0024D4  0E00               	movlw	0
  4395  0024D6  6E07               	movwf	GPIO_WriteOnPin@a_u8value^0,c
  4396  0024D8  0E02               	movlw	2
  4397  0024DA  EC9A  F006         	call	_GPIO_WriteOnPin
  4398  0024DE                     
  4399                           ;microwave.c: 446:         GPIO_WriteOnPin(1u , 7u , 0u);
  4400  0024DE  0E07               	movlw	7
  4401  0024E0  6E06               	movwf	GPIO_WriteOnPin@a_u8pin^0,c
  4402  0024E2  0E00               	movlw	0
  4403  0024E4  6E07               	movwf	GPIO_WriteOnPin@a_u8value^0,c
  4404  0024E6  0E01               	movlw	1
  4405  0024E8  EC9A  F006         	call	_GPIO_WriteOnPin
  4406  0024EC                     
  4407                           ;microwave.c: 448:         Global_interrupt_disable();
  4408  0024EC  EC59  F015         	call	_Global_interrupt_disable	;wreg free
  4409  0024F0                     
  4410                           ;microwave.c: 449:         Timer0_disable_overflow_interrupt();
  4411  0024F0  EC55  F015         	call	_Timer0_disable_overflow_interrupt	;wreg free
  4412  0024F4                     
  4413                           ;microwave.c: 450:         Timer0_disable();
  4414  0024F4  EC57  F015         	call	_Timer0_disable	;wreg free
  4415  0024F8                     
  4416                           ;microwave.c: 452:         PWM_Stop(PWM_CHANNEL_1);
  4417  0024F8  0E00               	movlw	0
  4418  0024FA  ECB6  F014         	call	_PWM_Stop
  4419  0024FE                     
  4420                           ;microwave.c: 454:         LCD_SetDisplayPosition(0,3);
  4421  0024FE  0E03               	movlw	3
  4422  002500  6E0D               	movwf	LCD_SetDisplayPosition@a_u8position_Y^0,c
  4423  002502  0E00               	movlw	0
  4424  002504  ECFA  F010         	call	_LCD_SetDisplayPosition
  4425  002508                     
  4426                           ;microwave.c: 455:         LCD_SendDataString("Door_St:  Closed");
  4427  002508  0E45               	movlw	low STR_9
  4428  00250A  6E12               	movwf	LCD_SendDataString@a_u8data_ptr^0,c
  4429  00250C  0E06               	movlw	high STR_9
  4430  00250E  6E13               	movwf	(LCD_SendDataString@a_u8data_ptr+1)^0,c
  4431  002510  EC0F  F014         	call	_LCD_SendDataString	;wreg free
  4432  002514                     
  4433                           ;microwave.c: 456:         LCD_SetDisplayPosition(0,4);
  4434  002514  0E04               	movlw	4
  4435  002516  6E0D               	movwf	LCD_SetDisplayPosition@a_u8position_Y^0,c
  4436  002518  0E00               	movlw	0
  4437  00251A  ECFA  F010         	call	_LCD_SetDisplayPosition
  4438  00251E                     
  4439                           ;microwave.c: 457:         LCD_SendDataString("Inside_St:  Food");
  4440  00251E  0E56               	movlw	low STR_10
  4441  002520  6E12               	movwf	LCD_SendDataString@a_u8data_ptr^0,c
  4442  002522  0E06               	movlw	high STR_10
  4443  002524  6E13               	movwf	(LCD_SendDataString@a_u8data_ptr+1)^0,c
  4444  002526  EC0F  F014         	call	_LCD_SendDataString	;wreg free
  4445  00252A                     l631:
  4446  00252A  0012               	return		;funcret
  4447  00252C                     __end_of_If_heating_is_canceled_function:
  4448                           	opt callstack 0
  4449                           
  4450 ;; *************** function _KeyPad_getPressedKey *****************
  4451 ;; Defined at:
  4452 ;;		line 80 in file "KeyPad.c"
  4453 ;; Parameters:    Size  Location     Type
  4454 ;;		None
  4455 ;; Auto vars:     Size  Location     Type
  4456 ;;  u8colCounter    1   14[COMRAM] unsigned char 
  4457 ;;  u8rowCounter    1   13[COMRAM] unsigned char 
  4458 ;;  ReturnVal       1   12[COMRAM] unsigned char 
  4459 ;; Return value:  Size  Location     Type
  4460 ;;                  1    wreg      unsigned char 
  4461 ;; Registers used:
  4462 ;;		wreg, status,2, status,0, cstack
  4463 ;; Tracked objects:
  4464 ;;		On entry : 0/0
  4465 ;;		On exit  : 0/0
  4466 ;;		Unchanged: 0/0
  4467 ;; Data sizes:     COMRAM   BANK0   BANK1   BANK2   BANK3   BANK4   BANK5
  4468 ;;      Params:         0       0       0       0       0       0       0
  4469 ;;      Locals:         3       0       0       0       0       0       0
  4470 ;;      Temps:          1       0       0       0       0       0       0
  4471 ;;      Totals:         4       0       0       0       0       0       0
  4472 ;;Total ram usage:        4 bytes
  4473 ;; Hardware stack levels used:    1
  4474 ;; Hardware stack levels required when called:    4
  4475 ;; This function calls:
  4476 ;;		_GPIO_ReadFromPin
  4477 ;;		_GPIO_WriteOnPin
  4478 ;;		_KeyPad_switch
  4479 ;; This function is called by:
  4480 ;;		_User_insert_time_and_start_heating_function
  4481 ;;		_If_heating_is_canceled_function
  4482 ;;		_Reset_to_idle_state
  4483 ;; This function uses a non-reentrant model
  4484 ;;
  4485                           
  4486                           	psect	text29
  4487  001F4C                     __ptext29:
  4488                           	opt callstack 0
  4489  001F4C                     _KeyPad_getPressedKey:
  4490                           	opt callstack 25
  4491  001F4C                     
  4492                           ;KeyPad.c: 83:  uint8 ReturnVal=10;
  4493  001F4C  0E0A               	movlw	10
  4494  001F4E  6E0D               	movwf	KeyPad_getPressedKey@ReturnVal^0,c
  4495                           
  4496                           ;KeyPad.c: 86:  for(uint8 u8rowCounter = 0u ; u8rowCounter <= 0u + 3u ; u8rowCounter++)
  4497  001F50  0E00               	movlw	0
  4498  001F52  6E0E               	movwf	KeyPad_getPressedKey@u8rowCounter^0,c
  4499  001F54                     l3655:
  4500                           
  4501                           ;KeyPad.c: 87:  {;KeyPad.c: 89:   GPIO_WriteOnPin(3u , u8rowCounter , 0u);
  4502  001F54  C00E  F006         	movff	KeyPad_getPressedKey@u8rowCounter,GPIO_WriteOnPin@a_u8pin
  4503  001F58  0E00               	movlw	0
  4504  001F5A  6E07               	movwf	GPIO_WriteOnPin@a_u8value^0,c
  4505  001F5C  0E03               	movlw	3
  4506  001F5E  EC9A  F006         	call	_GPIO_WriteOnPin
  4507  001F62                     
  4508                           ;KeyPad.c: 92:   for(uint8 u8colCounter = 0u ; u8colCounter <= 0u + 2u ; u8colCounter++)
  4509  001F62  0E00               	movlw	0
  4510  001F64  6E0F               	movwf	KeyPad_getPressedKey@u8colCounter^0,c
  4511  001F66                     l3663:
  4512                           
  4513                           ;KeyPad.c: 93:   {;KeyPad.c: 95:    if(GPIO_ReadFromPin(1u , u8colCounter) == 0u)
  4514  001F66  C00F  F006         	movff	KeyPad_getPressedKey@u8colCounter,GPIO_ReadFromPin@a_u8pin
  4515  001F6A  0E01               	movlw	1
  4516  001F6C  EC70  F00D         	call	_GPIO_ReadFromPin
  4517  001F70  0900               	iorlw	0
  4518  001F72  A4D8               	btfss	status,2,c
  4519  001F74  EFBE  F00F         	goto	u2521
  4520  001F78  EFC0  F00F         	goto	u2520
  4521  001F7C                     u2521:
  4522  001F7C  EFE9  F00F         	goto	l3677
  4523  001F80                     u2520:
  4524  001F80                     
  4525                           ;KeyPad.c: 96:    {;KeyPad.c: 98:                 _delay((unsigned long)((10)*(8000000/4
      +                          000.0)));
  4526  001F80  0E1A               	movlw	26
  4527  001F82  6E0C               	movwf	??_KeyPad_getPressedKey^0,c
  4528  001F84  0EF8               	movlw	248
  4529  001F86                     u3267:
  4530  001F86  2EE8               	decfsz	wreg,f,c
  4531  001F88  D7FE               	bra	u3267
  4532  001F8A  2E0C               	decfsz	??_KeyPad_getPressedKey^0,f,c
  4533  001F8C  D7FC               	bra	u3267
  4534  001F8E  D000               	nop2	
  4535  001F90                     
  4536                           ;KeyPad.c: 100:                 if(GPIO_ReadFromPin(1u , u8colCounter) == 0u)
  4537  001F90  C00F  F006         	movff	KeyPad_getPressedKey@u8colCounter,GPIO_ReadFromPin@a_u8pin
  4538  001F94  0E01               	movlw	1
  4539  001F96  EC70  F00D         	call	_GPIO_ReadFromPin
  4540  001F9A  0900               	iorlw	0
  4541  001F9C  A4D8               	btfss	status,2,c
  4542  001F9E  EFD3  F00F         	goto	u2531
  4543  001FA2  EFD5  F00F         	goto	u2530
  4544  001FA6                     u2531:
  4545  001FA6  EFE9  F00F         	goto	l3677
  4546  001FAA                     u2530:
  4547  001FAA                     l3671:
  4548  001FAA  C00F  F006         	movff	KeyPad_getPressedKey@u8colCounter,GPIO_ReadFromPin@a_u8pin
  4549  001FAE  0E01               	movlw	1
  4550  001FB0  EC70  F00D         	call	_GPIO_ReadFromPin
  4551  001FB4  0900               	iorlw	0
  4552  001FB6  B4D8               	btfsc	status,2,c
  4553  001FB8  EFE0  F00F         	goto	u2541
  4554  001FBC  EFE2  F00F         	goto	u2540
  4555  001FC0                     u2541:
  4556  001FC0  EFD5  F00F         	goto	l3671
  4557  001FC4                     u2540:
  4558  001FC4                     
  4559                           ;KeyPad.c: 105:                     return KeyPad_switch(u8rowCounter - 0u , u8colCounte
      +                          r - 0u);
  4560  001FC4  C00F  F006         	movff	KeyPad_getPressedKey@u8colCounter,KeyPad_switch@a_u8col
  4561  001FC8  500E               	movf	KeyPad_getPressedKey@u8rowCounter^0,w,c
  4562  001FCA  EC94  F009         	call	_KeyPad_switch
  4563  001FCE  EF03  F010         	goto	l332
  4564  001FD2                     l3677:
  4565                           
  4566                           ;KeyPad.c: 108:   }
  4567  001FD2  2A0F               	incf	KeyPad_getPressedKey@u8colCounter^0,f,c
  4568  001FD4  0E02               	movlw	2
  4569  001FD6  640F               	cpfsgt	KeyPad_getPressedKey@u8colCounter^0,c
  4570  001FD8  EFF0  F00F         	goto	u2551
  4571  001FDC  EFF2  F00F         	goto	u2550
  4572  001FE0                     u2551:
  4573  001FE0  EFB3  F00F         	goto	l3663
  4574  001FE4                     u2550:
  4575  001FE4                     
  4576                           ;KeyPad.c: 110:         GPIO_WriteOnPin(3u , u8rowCounter , 1u);
  4577  001FE4  C00E  F006         	movff	KeyPad_getPressedKey@u8rowCounter,GPIO_WriteOnPin@a_u8pin
  4578  001FE8  0E01               	movlw	1
  4579  001FEA  6E07               	movwf	GPIO_WriteOnPin@a_u8value^0,c
  4580  001FEC  0E03               	movlw	3
  4581  001FEE  EC9A  F006         	call	_GPIO_WriteOnPin
  4582  001FF2                     
  4583                           ;KeyPad.c: 111:  }
  4584  001FF2  2A0E               	incf	KeyPad_getPressedKey@u8rowCounter^0,f,c
  4585  001FF4  0E03               	movlw	3
  4586  001FF6  640E               	cpfsgt	KeyPad_getPressedKey@u8rowCounter^0,c
  4587  001FF8  EF00  F010         	goto	u2561
  4588  001FFC  EF02  F010         	goto	u2560
  4589  002000                     u2561:
  4590  002000  EFAA  F00F         	goto	l3655
  4591  002004                     u2560:
  4592  002004                     
  4593                           ;KeyPad.c: 112:  return ReturnVal;
  4594  002004  500D               	movf	KeyPad_getPressedKey@ReturnVal^0,w,c
  4595  002006                     l332:
  4596  002006  0012               	return		;funcret
  4597  002008                     __end_of_KeyPad_getPressedKey:
  4598                           	opt callstack 0
  4599                           
  4600 ;; *************** function _KeyPad_switch *****************
  4601 ;; Defined at:
  4602 ;;		line 127 in file "KeyPad.c"
  4603 ;; Parameters:    Size  Location     Type
  4604 ;;  a_u8row         1    wreg     unsigned char 
  4605 ;;  a_u8col         1    5[COMRAM] unsigned char 
  4606 ;; Auto vars:     Size  Location     Type
  4607 ;;  a_u8row         1    8[COMRAM] unsigned char 
  4608 ;;  ReturnVal       1    9[COMRAM] unsigned char 
  4609 ;; Return value:  Size  Location     Type
  4610 ;;                  1    wreg      unsigned char 
  4611 ;; Registers used:
  4612 ;;		wreg, status,2, status,0
  4613 ;; Tracked objects:
  4614 ;;		On entry : 0/0
  4615 ;;		On exit  : 0/0
  4616 ;;		Unchanged: 0/0
  4617 ;; Data sizes:     COMRAM   BANK0   BANK1   BANK2   BANK3   BANK4   BANK5
  4618 ;;      Params:         1       0       0       0       0       0       0
  4619 ;;      Locals:         2       0       0       0       0       0       0
  4620 ;;      Temps:          2       0       0       0       0       0       0
  4621 ;;      Totals:         5       0       0       0       0       0       0
  4622 ;;Total ram usage:        5 bytes
  4623 ;; Hardware stack levels used:    1
  4624 ;; Hardware stack levels required when called:    3
  4625 ;; This function calls:
  4626 ;;		Nothing
  4627 ;; This function is called by:
  4628 ;;		_KeyPad_getPressedKey
  4629 ;; This function uses a non-reentrant model
  4630 ;;
  4631                           
  4632                           	psect	text30
  4633  001328                     __ptext30:
  4634                           	opt callstack 0
  4635  001328                     _KeyPad_switch:
  4636                           	opt callstack 25
  4637                           
  4638                           ;incstack = 0
  4639                           ;KeyPad_switch@a_u8row stored from wreg
  4640  001328  6E09               	movwf	KeyPad_switch@a_u8row^0,c
  4641  00132A                     
  4642                           ;KeyPad.c: 127: static uint8 KeyPad_switch(uint8 a_u8row , uint8 a_u8col);KeyPad.c: 128:
      +                           {;KeyPad.c: 130:  uint8 ReturnVal = 0;
  4643  00132A  0E00               	movlw	0
  4644  00132C  6E0A               	movwf	KeyPad_switch@ReturnVal^0,c
  4645                           
  4646                           ;KeyPad.c: 133:  switch(a_u8row)
  4647  00132E  EF2D  F00A         	goto	l3513
  4648  001332                     l3471:
  4649  001332  0E2A               	movlw	42
  4650  001334  6E0A               	movwf	KeyPad_switch@ReturnVal^0,c
  4651                           
  4652                           ;KeyPad.c: 140:             break;
  4653  001336  EF4A  F00A         	goto	l3515
  4654  00133A                     l3473:
  4655  00133A  0E00               	movlw	0
  4656  00133C  6E0A               	movwf	KeyPad_switch@ReturnVal^0,c
  4657                           
  4658                           ;KeyPad.c: 142:             break;
  4659  00133E  EF4A  F00A         	goto	l3515
  4660  001342                     l3475:
  4661  001342  0E23               	movlw	35
  4662  001344  6E0A               	movwf	KeyPad_switch@ReturnVal^0,c
  4663                           
  4664                           ;KeyPad.c: 144:             break;
  4665  001346  EF4A  F00A         	goto	l3515
  4666  00134A                     l3479:
  4667  00134A  5006               	movf	KeyPad_switch@a_u8col^0,w,c
  4668  00134C  6E07               	movwf	??_KeyPad_switch^0,c
  4669  00134E  6A08               	clrf	(??_KeyPad_switch+1)^0,c
  4670                           
  4671                           ; Switch on 2 bytes has been partitioned into a top level switch of size 1, and 1 sub-sw
      +                          itches
  4672                           ; Switch size 1, requested type "simple"
  4673                           ; Number of cases is 1, Range of values is 0 to 0
  4674                           ; switch strategies available:
  4675                           ; Name         Instructions Cycles
  4676                           ; simple_byte            4     3 (average)
  4677                           ;	Chosen strategy is simple_byte
  4678  001350  5008               	movf	(??_KeyPad_switch+1)^0,w,c
  4679  001352  0A00               	xorlw	0	; case 0
  4680  001354  B4D8               	btfsc	status,2,c
  4681  001356  EFAF  F009         	goto	l4597
  4682  00135A  EF4A  F00A         	goto	l3515
  4683  00135E                     l4597:
  4684                           
  4685                           ; Switch size 1, requested type "simple"
  4686                           ; Number of cases is 3, Range of values is 0 to 2
  4687                           ; switch strategies available:
  4688                           ; Name         Instructions Cycles
  4689                           ; simple_byte           10     6 (average)
  4690                           ;	Chosen strategy is simple_byte
  4691  00135E  5007               	movf	??_KeyPad_switch^0,w,c
  4692  001360  0A00               	xorlw	0	; case 0
  4693  001362  B4D8               	btfsc	status,2,c
  4694  001364  EF99  F009         	goto	l3471
  4695  001368  0A01               	xorlw	1	; case 1
  4696  00136A  B4D8               	btfsc	status,2,c
  4697  00136C  EF9D  F009         	goto	l3473
  4698  001370  0A03               	xorlw	3	; case 2
  4699  001372  B4D8               	btfsc	status,2,c
  4700  001374  EFA1  F009         	goto	l3475
  4701  001378  EF4A  F00A         	goto	l3515
  4702  00137C                     l3481:
  4703  00137C  0E07               	movlw	7
  4704  00137E  6E0A               	movwf	KeyPad_switch@ReturnVal^0,c
  4705                           
  4706                           ;KeyPad.c: 161:    break;
  4707  001380  EF4A  F00A         	goto	l3515
  4708  001384                     l3483:
  4709  001384  0E08               	movlw	8
  4710  001386  6E0A               	movwf	KeyPad_switch@ReturnVal^0,c
  4711                           
  4712                           ;KeyPad.c: 163:    break;
  4713  001388  EF4A  F00A         	goto	l3515
  4714  00138C                     l3485:
  4715  00138C  0E09               	movlw	9
  4716  00138E  6E0A               	movwf	KeyPad_switch@ReturnVal^0,c
  4717                           
  4718                           ;KeyPad.c: 165:    break;
  4719  001390  EF4A  F00A         	goto	l3515
  4720  001394                     l3489:
  4721  001394  5006               	movf	KeyPad_switch@a_u8col^0,w,c
  4722  001396  6E07               	movwf	??_KeyPad_switch^0,c
  4723  001398  6A08               	clrf	(??_KeyPad_switch+1)^0,c
  4724                           
  4725                           ; Switch on 2 bytes has been partitioned into a top level switch of size 1, and 1 sub-sw
      +                          itches
  4726                           ; Switch size 1, requested type "simple"
  4727                           ; Number of cases is 1, Range of values is 0 to 0
  4728                           ; switch strategies available:
  4729                           ; Name         Instructions Cycles
  4730                           ; simple_byte            4     3 (average)
  4731                           ;	Chosen strategy is simple_byte
  4732  00139A  5008               	movf	(??_KeyPad_switch+1)^0,w,c
  4733  00139C  0A00               	xorlw	0	; case 0
  4734  00139E  B4D8               	btfsc	status,2,c
  4735  0013A0  EFD4  F009         	goto	l4599
  4736  0013A4  EF4A  F00A         	goto	l3515
  4737  0013A8                     l4599:
  4738                           
  4739                           ; Switch size 1, requested type "simple"
  4740                           ; Number of cases is 3, Range of values is 0 to 2
  4741                           ; switch strategies available:
  4742                           ; Name         Instructions Cycles
  4743                           ; simple_byte           10     6 (average)
  4744                           ;	Chosen strategy is simple_byte
  4745  0013A8  5007               	movf	??_KeyPad_switch^0,w,c
  4746  0013AA  0A00               	xorlw	0	; case 0
  4747  0013AC  B4D8               	btfsc	status,2,c
  4748  0013AE  EFBE  F009         	goto	l3481
  4749  0013B2  0A01               	xorlw	1	; case 1
  4750  0013B4  B4D8               	btfsc	status,2,c
  4751  0013B6  EFC2  F009         	goto	l3483
  4752  0013BA  0A03               	xorlw	3	; case 2
  4753  0013BC  B4D8               	btfsc	status,2,c
  4754  0013BE  EFC6  F009         	goto	l3485
  4755  0013C2  EF4A  F00A         	goto	l3515
  4756  0013C6                     l3491:
  4757  0013C6  0E04               	movlw	4
  4758  0013C8  6E0A               	movwf	KeyPad_switch@ReturnVal^0,c
  4759                           
  4760                           ;KeyPad.c: 182:    break;
  4761  0013CA  EF4A  F00A         	goto	l3515
  4762  0013CE                     l3493:
  4763  0013CE  0E05               	movlw	5
  4764  0013D0  6E0A               	movwf	KeyPad_switch@ReturnVal^0,c
  4765                           
  4766                           ;KeyPad.c: 184:    break;
  4767  0013D2  EF4A  F00A         	goto	l3515
  4768  0013D6                     l3495:
  4769  0013D6  0E06               	movlw	6
  4770  0013D8  6E0A               	movwf	KeyPad_switch@ReturnVal^0,c
  4771                           
  4772                           ;KeyPad.c: 186:    break;
  4773  0013DA  EF4A  F00A         	goto	l3515
  4774  0013DE                     l3499:
  4775  0013DE  5006               	movf	KeyPad_switch@a_u8col^0,w,c
  4776  0013E0  6E07               	movwf	??_KeyPad_switch^0,c
  4777  0013E2  6A08               	clrf	(??_KeyPad_switch+1)^0,c
  4778                           
  4779                           ; Switch on 2 bytes has been partitioned into a top level switch of size 1, and 1 sub-sw
      +                          itches
  4780                           ; Switch size 1, requested type "simple"
  4781                           ; Number of cases is 1, Range of values is 0 to 0
  4782                           ; switch strategies available:
  4783                           ; Name         Instructions Cycles
  4784                           ; simple_byte            4     3 (average)
  4785                           ;	Chosen strategy is simple_byte
  4786  0013E4  5008               	movf	(??_KeyPad_switch+1)^0,w,c
  4787  0013E6  0A00               	xorlw	0	; case 0
  4788  0013E8  B4D8               	btfsc	status,2,c
  4789  0013EA  EFF9  F009         	goto	l4601
  4790  0013EE  EF4A  F00A         	goto	l3515
  4791  0013F2                     l4601:
  4792                           
  4793                           ; Switch size 1, requested type "simple"
  4794                           ; Number of cases is 3, Range of values is 0 to 2
  4795                           ; switch strategies available:
  4796                           ; Name         Instructions Cycles
  4797                           ; simple_byte           10     6 (average)
  4798                           ;	Chosen strategy is simple_byte
  4799  0013F2  5007               	movf	??_KeyPad_switch^0,w,c
  4800  0013F4  0A00               	xorlw	0	; case 0
  4801  0013F6  B4D8               	btfsc	status,2,c
  4802  0013F8  EFE3  F009         	goto	l3491
  4803  0013FC  0A01               	xorlw	1	; case 1
  4804  0013FE  B4D8               	btfsc	status,2,c
  4805  001400  EFE7  F009         	goto	l3493
  4806  001404  0A03               	xorlw	3	; case 2
  4807  001406  B4D8               	btfsc	status,2,c
  4808  001408  EFEB  F009         	goto	l3495
  4809  00140C  EF4A  F00A         	goto	l3515
  4810  001410                     l3501:
  4811  001410  0E01               	movlw	1
  4812  001412  6E0A               	movwf	KeyPad_switch@ReturnVal^0,c
  4813                           
  4814                           ;KeyPad.c: 204:    break;
  4815  001414  EF4A  F00A         	goto	l3515
  4816  001418                     l3503:
  4817  001418  0E02               	movlw	2
  4818  00141A  6E0A               	movwf	KeyPad_switch@ReturnVal^0,c
  4819                           
  4820                           ;KeyPad.c: 206:    break;
  4821  00141C  EF4A  F00A         	goto	l3515
  4822  001420                     l3505:
  4823  001420  0E03               	movlw	3
  4824  001422  6E0A               	movwf	KeyPad_switch@ReturnVal^0,c
  4825                           
  4826                           ;KeyPad.c: 208:    break;
  4827  001424  EF4A  F00A         	goto	l3515
  4828  001428                     l3509:
  4829  001428  5006               	movf	KeyPad_switch@a_u8col^0,w,c
  4830  00142A  6E07               	movwf	??_KeyPad_switch^0,c
  4831  00142C  6A08               	clrf	(??_KeyPad_switch+1)^0,c
  4832                           
  4833                           ; Switch on 2 bytes has been partitioned into a top level switch of size 1, and 1 sub-sw
      +                          itches
  4834                           ; Switch size 1, requested type "simple"
  4835                           ; Number of cases is 1, Range of values is 0 to 0
  4836                           ; switch strategies available:
  4837                           ; Name         Instructions Cycles
  4838                           ; simple_byte            4     3 (average)
  4839                           ;	Chosen strategy is simple_byte
  4840  00142E  5008               	movf	(??_KeyPad_switch+1)^0,w,c
  4841  001430  0A00               	xorlw	0	; case 0
  4842  001432  B4D8               	btfsc	status,2,c
  4843  001434  EF1E  F00A         	goto	l4603
  4844  001438  EF4A  F00A         	goto	l3515
  4845  00143C                     l4603:
  4846                           
  4847                           ; Switch size 1, requested type "simple"
  4848                           ; Number of cases is 3, Range of values is 0 to 2
  4849                           ; switch strategies available:
  4850                           ; Name         Instructions Cycles
  4851                           ; simple_byte           10     6 (average)
  4852                           ;	Chosen strategy is simple_byte
  4853  00143C  5007               	movf	??_KeyPad_switch^0,w,c
  4854  00143E  0A00               	xorlw	0	; case 0
  4855  001440  B4D8               	btfsc	status,2,c
  4856  001442  EF08  F00A         	goto	l3501
  4857  001446  0A01               	xorlw	1	; case 1
  4858  001448  B4D8               	btfsc	status,2,c
  4859  00144A  EF0C  F00A         	goto	l3503
  4860  00144E  0A03               	xorlw	3	; case 2
  4861  001450  B4D8               	btfsc	status,2,c
  4862  001452  EF10  F00A         	goto	l3505
  4863  001456  EF4A  F00A         	goto	l3515
  4864  00145A                     l3513:
  4865  00145A  5009               	movf	KeyPad_switch@a_u8row^0,w,c
  4866  00145C  6E07               	movwf	??_KeyPad_switch^0,c
  4867  00145E  6A08               	clrf	(??_KeyPad_switch+1)^0,c
  4868                           
  4869                           ; Switch on 2 bytes has been partitioned into a top level switch of size 1, and 1 sub-sw
      +                          itches
  4870                           ; Switch size 1, requested type "simple"
  4871                           ; Number of cases is 1, Range of values is 0 to 0
  4872                           ; switch strategies available:
  4873                           ; Name         Instructions Cycles
  4874                           ; simple_byte            4     3 (average)
  4875                           ;	Chosen strategy is simple_byte
  4876  001460  5008               	movf	(??_KeyPad_switch+1)^0,w,c
  4877  001462  0A00               	xorlw	0	; case 0
  4878  001464  B4D8               	btfsc	status,2,c
  4879  001466  EF37  F00A         	goto	l4605
  4880  00146A  EF4A  F00A         	goto	l3515
  4881  00146E                     l4605:
  4882                           
  4883                           ; Switch size 1, requested type "simple"
  4884                           ; Number of cases is 4, Range of values is 0 to 3
  4885                           ; switch strategies available:
  4886                           ; Name         Instructions Cycles
  4887                           ; simple_byte           13     7 (average)
  4888                           ;	Chosen strategy is simple_byte
  4889  00146E  5007               	movf	??_KeyPad_switch^0,w,c
  4890  001470  0A00               	xorlw	0	; case 0
  4891  001472  B4D8               	btfsc	status,2,c
  4892  001474  EFA5  F009         	goto	l3479
  4893  001478  0A01               	xorlw	1	; case 1
  4894  00147A  B4D8               	btfsc	status,2,c
  4895  00147C  EFCA  F009         	goto	l3489
  4896  001480  0A03               	xorlw	3	; case 2
  4897  001482  B4D8               	btfsc	status,2,c
  4898  001484  EFEF  F009         	goto	l3499
  4899  001488  0A01               	xorlw	1	; case 3
  4900  00148A  B4D8               	btfsc	status,2,c
  4901  00148C  EF14  F00A         	goto	l3509
  4902  001490  EF4A  F00A         	goto	l3515
  4903  001494                     l3515:
  4904                           
  4905                           ;KeyPad.c: 226:  return ReturnVal;
  4906  001494  500A               	movf	KeyPad_switch@ReturnVal^0,w,c
  4907  001496  0012               	return		;funcret
  4908  001498                     __end_of_KeyPad_switch:
  4909                           	opt callstack 0
  4910                           
  4911 ;; *************** function _GPIO_ReadFromPin *****************
  4912 ;; Defined at:
  4913 ;;		line 510 in file "GPIO.c"
  4914 ;; Parameters:    Size  Location     Type
  4915 ;;  a_u8port        1    wreg     unsigned char 
  4916 ;;  a_u8pin         1    5[COMRAM] unsigned char 
  4917 ;; Auto vars:     Size  Location     Type
  4918 ;;  a_u8port        1    8[COMRAM] unsigned char 
  4919 ;;  retVal          1    9[COMRAM] unsigned char 
  4920 ;; Return value:  Size  Location     Type
  4921 ;;                  1    wreg      unsigned char 
  4922 ;; Registers used:
  4923 ;;		wreg, status,2, status,0
  4924 ;; Tracked objects:
  4925 ;;		On entry : 0/0
  4926 ;;		On exit  : 0/0
  4927 ;;		Unchanged: 0/0
  4928 ;; Data sizes:     COMRAM   BANK0   BANK1   BANK2   BANK3   BANK4   BANK5
  4929 ;;      Params:         1       0       0       0       0       0       0
  4930 ;;      Locals:         2       0       0       0       0       0       0
  4931 ;;      Temps:          2       0       0       0       0       0       0
  4932 ;;      Totals:         5       0       0       0       0       0       0
  4933 ;;Total ram usage:        5 bytes
  4934 ;; Hardware stack levels used:    1
  4935 ;; Hardware stack levels required when called:    3
  4936 ;; This function calls:
  4937 ;;		Nothing
  4938 ;; This function is called by:
  4939 ;;		_KeyPad_getPressedKey
  4940 ;;		_Door_sensor_function
  4941 ;;		_Weight_sensor_function
  4942 ;; This function uses a non-reentrant model
  4943 ;;
  4944                           
  4945                           	psect	text31
  4946  001AE0                     __ptext31:
  4947                           	opt callstack 0
  4948  001AE0                     _GPIO_ReadFromPin:
  4949                           	opt callstack 26
  4950                           
  4951                           ;incstack = 0
  4952                           ;GPIO_ReadFromPin@a_u8port stored from wreg
  4953  001AE0  6E09               	movwf	GPIO_ReadFromPin@a_u8port^0,c
  4954  001AE2                     
  4955                           ;GPIO.c: 510: uint8 GPIO_ReadFromPin(uint8 a_u8port , uint8 a_u8pin);GPIO.c: 511: {;GPIO
      +                          .c: 512:     uint8 retVal = 0xFF;
  4956  001AE2  680A               	setf	GPIO_ReadFromPin@retVal^0,c
  4957                           
  4958                           ;GPIO.c: 514:     switch(a_u8port)
  4959  001AE4  EFC9  F00D         	goto	l3459
  4960  001AE8                     l3447:
  4961                           
  4962                           ;GPIO.c: 517:             retVal = (*(volatile uint8*)0xF80 >> a_u8pin) & 0x01;
  4963  001AE8  C006  F007         	movff	GPIO_ReadFromPin@a_u8pin,??_GPIO_ReadFromPin
  4964  001AEC  CF80 F008          	movff	3968,??_GPIO_ReadFromPin+1	;volatile
  4965  001AF0  2A07               	incf	??_GPIO_ReadFromPin^0,f,c
  4966  001AF2  EF7D  F00D         	goto	u2304
  4967  001AF6                     u2305:
  4968  001AF6  90D8               	bcf	status,0,c
  4969  001AF8  3208               	rrcf	(??_GPIO_ReadFromPin+1)^0,f,c
  4970  001AFA                     u2304:
  4971  001AFA  2E07               	decfsz	??_GPIO_ReadFromPin^0,f,c
  4972  001AFC  EF7B  F00D         	goto	u2305
  4973  001B00  5008               	movf	(??_GPIO_ReadFromPin+1)^0,w,c
  4974  001B02  0B01               	andlw	1
  4975  001B04  6E0A               	movwf	GPIO_ReadFromPin@retVal^0,c
  4976                           
  4977                           ;GPIO.c: 518:             break;
  4978  001B06  EFEA  F00D         	goto	l3461
  4979  001B0A                     l3449:
  4980                           
  4981                           ;GPIO.c: 520:             retVal = (*(volatile uint8*)0xF81 >> a_u8pin) & 0x01;
  4982  001B0A  C006  F007         	movff	GPIO_ReadFromPin@a_u8pin,??_GPIO_ReadFromPin
  4983  001B0E  CF81 F008          	movff	3969,??_GPIO_ReadFromPin+1	;volatile
  4984  001B12  2A07               	incf	??_GPIO_ReadFromPin^0,f,c
  4985  001B14  EF8E  F00D         	goto	u2314
  4986  001B18                     u2315:
  4987  001B18  90D8               	bcf	status,0,c
  4988  001B1A  3208               	rrcf	(??_GPIO_ReadFromPin+1)^0,f,c
  4989  001B1C                     u2314:
  4990  001B1C  2E07               	decfsz	??_GPIO_ReadFromPin^0,f,c
  4991  001B1E  EF8C  F00D         	goto	u2315
  4992  001B22  5008               	movf	(??_GPIO_ReadFromPin+1)^0,w,c
  4993  001B24  0B01               	andlw	1
  4994  001B26  6E0A               	movwf	GPIO_ReadFromPin@retVal^0,c
  4995                           
  4996                           ;GPIO.c: 521:             break;
  4997  001B28  EFEA  F00D         	goto	l3461
  4998  001B2C                     l3451:
  4999                           
  5000                           ;GPIO.c: 523:             retVal = (*(volatile uint8*)0xF82 >> a_u8pin) & 0x01;
  5001  001B2C  C006  F007         	movff	GPIO_ReadFromPin@a_u8pin,??_GPIO_ReadFromPin
  5002  001B30  CF82 F008          	movff	3970,??_GPIO_ReadFromPin+1	;volatile
  5003  001B34  2A07               	incf	??_GPIO_ReadFromPin^0,f,c
  5004  001B36  EF9F  F00D         	goto	u2324
  5005  001B3A                     u2325:
  5006  001B3A  90D8               	bcf	status,0,c
  5007  001B3C  3208               	rrcf	(??_GPIO_ReadFromPin+1)^0,f,c
  5008  001B3E                     u2324:
  5009  001B3E  2E07               	decfsz	??_GPIO_ReadFromPin^0,f,c
  5010  001B40  EF9D  F00D         	goto	u2325
  5011  001B44  5008               	movf	(??_GPIO_ReadFromPin+1)^0,w,c
  5012  001B46  0B01               	andlw	1
  5013  001B48  6E0A               	movwf	GPIO_ReadFromPin@retVal^0,c
  5014                           
  5015                           ;GPIO.c: 524:             break;
  5016  001B4A  EFEA  F00D         	goto	l3461
  5017  001B4E                     l3453:
  5018                           
  5019                           ;GPIO.c: 526:             retVal = (*(volatile uint8*)0xF83 >> a_u8pin) & 0x01;
  5020  001B4E  C006  F007         	movff	GPIO_ReadFromPin@a_u8pin,??_GPIO_ReadFromPin
  5021  001B52  CF83 F008          	movff	3971,??_GPIO_ReadFromPin+1	;volatile
  5022  001B56  2A07               	incf	??_GPIO_ReadFromPin^0,f,c
  5023  001B58  EFB0  F00D         	goto	u2334
  5024  001B5C                     u2335:
  5025  001B5C  90D8               	bcf	status,0,c
  5026  001B5E  3208               	rrcf	(??_GPIO_ReadFromPin+1)^0,f,c
  5027  001B60                     u2334:
  5028  001B60  2E07               	decfsz	??_GPIO_ReadFromPin^0,f,c
  5029  001B62  EFAE  F00D         	goto	u2335
  5030  001B66  5008               	movf	(??_GPIO_ReadFromPin+1)^0,w,c
  5031  001B68  0B01               	andlw	1
  5032  001B6A  6E0A               	movwf	GPIO_ReadFromPin@retVal^0,c
  5033                           
  5034                           ;GPIO.c: 527:             break;
  5035  001B6C  EFEA  F00D         	goto	l3461
  5036  001B70                     l3455:
  5037                           
  5038                           ;GPIO.c: 529:             retVal = (*(volatile uint8*)0xF84 >> a_u8pin) & 0x01;
  5039  001B70  C006  F007         	movff	GPIO_ReadFromPin@a_u8pin,??_GPIO_ReadFromPin
  5040  001B74  CF84 F008          	movff	3972,??_GPIO_ReadFromPin+1	;volatile
  5041  001B78  2A07               	incf	??_GPIO_ReadFromPin^0,f,c
  5042  001B7A  EFC1  F00D         	goto	u2344
  5043  001B7E                     u2345:
  5044  001B7E  90D8               	bcf	status,0,c
  5045  001B80  3208               	rrcf	(??_GPIO_ReadFromPin+1)^0,f,c
  5046  001B82                     u2344:
  5047  001B82  2E07               	decfsz	??_GPIO_ReadFromPin^0,f,c
  5048  001B84  EFBF  F00D         	goto	u2345
  5049  001B88  5008               	movf	(??_GPIO_ReadFromPin+1)^0,w,c
  5050  001B8A  0B01               	andlw	1
  5051  001B8C  6E0A               	movwf	GPIO_ReadFromPin@retVal^0,c
  5052                           
  5053                           ;GPIO.c: 530:             break;
  5054  001B8E  EFEA  F00D         	goto	l3461
  5055  001B92                     l3459:
  5056  001B92  5009               	movf	GPIO_ReadFromPin@a_u8port^0,w,c
  5057  001B94  6E07               	movwf	??_GPIO_ReadFromPin^0,c
  5058  001B96  6A08               	clrf	(??_GPIO_ReadFromPin+1)^0,c
  5059                           
  5060                           ; Switch on 2 bytes has been partitioned into a top level switch of size 1, and 1 sub-sw
      +                          itches
  5061                           ; Switch size 1, requested type "simple"
  5062                           ; Number of cases is 1, Range of values is 0 to 0
  5063                           ; switch strategies available:
  5064                           ; Name         Instructions Cycles
  5065                           ; simple_byte            4     3 (average)
  5066                           ;	Chosen strategy is simple_byte
  5067  001B98  5008               	movf	(??_GPIO_ReadFromPin+1)^0,w,c
  5068  001B9A  0A00               	xorlw	0	; case 0
  5069  001B9C  B4D8               	btfsc	status,2,c
  5070  001B9E  EFD3  F00D         	goto	l4607
  5071  001BA2  EFEA  F00D         	goto	l3461
  5072  001BA6                     l4607:
  5073                           
  5074                           ; Switch size 1, requested type "simple"
  5075                           ; Number of cases is 5, Range of values is 0 to 4
  5076                           ; switch strategies available:
  5077                           ; Name         Instructions Cycles
  5078                           ; simple_byte           16     9 (average)
  5079                           ;	Chosen strategy is simple_byte
  5080  001BA6  5007               	movf	??_GPIO_ReadFromPin^0,w,c
  5081  001BA8  0A00               	xorlw	0	; case 0
  5082  001BAA  B4D8               	btfsc	status,2,c
  5083  001BAC  EF74  F00D         	goto	l3447
  5084  001BB0  0A01               	xorlw	1	; case 1
  5085  001BB2  B4D8               	btfsc	status,2,c
  5086  001BB4  EF85  F00D         	goto	l3449
  5087  001BB8  0A03               	xorlw	3	; case 2
  5088  001BBA  B4D8               	btfsc	status,2,c
  5089  001BBC  EF96  F00D         	goto	l3451
  5090  001BC0  0A01               	xorlw	1	; case 3
  5091  001BC2  B4D8               	btfsc	status,2,c
  5092  001BC4  EFA7  F00D         	goto	l3453
  5093  001BC8  0A07               	xorlw	7	; case 4
  5094  001BCA  B4D8               	btfsc	status,2,c
  5095  001BCC  EFB8  F00D         	goto	l3455
  5096  001BD0  EFEA  F00D         	goto	l3461
  5097  001BD4                     l3461:
  5098                           
  5099                           ;GPIO.c: 535:     return retVal;
  5100  001BD4  500A               	movf	GPIO_ReadFromPin@retVal^0,w,c
  5101  001BD6  0012               	return		;funcret
  5102  001BD8                     __end_of_GPIO_ReadFromPin:
  5103                           	opt callstack 0
  5104                           
  5105 ;; *************** function _KeyPad_Initialization *****************
  5106 ;; Defined at:
  5107 ;;		line 54 in file "KeyPad.c"
  5108 ;; Parameters:    Size  Location     Type
  5109 ;;		None
  5110 ;; Auto vars:     Size  Location     Type
  5111 ;;  u8counter       1   11[COMRAM] unsigned char 
  5112 ;;  u8counter       1   12[COMRAM] unsigned char 
  5113 ;; Return value:  Size  Location     Type
  5114 ;;                  1    wreg      void 
  5115 ;; Registers used:
  5116 ;;		wreg, status,2, status,0, cstack
  5117 ;; Tracked objects:
  5118 ;;		On entry : 0/0
  5119 ;;		On exit  : 0/0
  5120 ;;		Unchanged: 0/0
  5121 ;; Data sizes:     COMRAM   BANK0   BANK1   BANK2   BANK3   BANK4   BANK5
  5122 ;;      Params:         0       0       0       0       0       0       0
  5123 ;;      Locals:         2       0       0       0       0       0       0
  5124 ;;      Temps:          0       0       0       0       0       0       0
  5125 ;;      Totals:         2       0       0       0       0       0       0
  5126 ;;Total ram usage:        2 bytes
  5127 ;; Hardware stack levels used:    1
  5128 ;; Hardware stack levels required when called:    4
  5129 ;; This function calls:
  5130 ;;		_GPIO_SetPinDirection
  5131 ;;		_GPIO_WriteOnPin
  5132 ;; This function is called by:
  5133 ;;		_User_insert_time_and_start_heating_function
  5134 ;;		_If_heating_is_canceled_function
  5135 ;;		_Reset_to_idle_state
  5136 ;; This function uses a non-reentrant model
  5137 ;;
  5138                           
  5139                           	psect	text32
  5140  0028DA                     __ptext32:
  5141                           	opt callstack 0
  5142  0028DA                     _KeyPad_Initialization:
  5143                           	opt callstack 25
  5144  0028DA                     
  5145                           ;KeyPad.c: 57:     for(uint8 u8counter = 0u ; u8counter <= 0u + 3u ; u8counter++)
  5146  0028DA  0E00               	movlw	0
  5147  0028DC  6E0D               	movwf	KeyPad_Initialization@u8counter^0,c
  5148  0028DE                     l3631:
  5149                           
  5150                           ;KeyPad.c: 58:     {;KeyPad.c: 59:         GPIO_SetPinDirection(3u , u8counter , 0u);
  5151  0028DE  C00D  F006         	movff	KeyPad_Initialization@u8counter,GPIO_SetPinDirection@a_u8pin
  5152  0028E2  0E00               	movlw	0
  5153  0028E4  6E07               	movwf	GPIO_SetPinDirection@a_u8direction^0,c
  5154  0028E6  0E03               	movlw	3
  5155  0028E8  EC4D  F005         	call	_GPIO_SetPinDirection
  5156                           
  5157                           ;KeyPad.c: 60:         GPIO_WriteOnPin(3u , u8counter , 1u);
  5158  0028EC  C00D  F006         	movff	KeyPad_Initialization@u8counter,GPIO_WriteOnPin@a_u8pin
  5159  0028F0  0E01               	movlw	1
  5160  0028F2  6E07               	movwf	GPIO_WriteOnPin@a_u8value^0,c
  5161  0028F4  0E03               	movlw	3
  5162  0028F6  EC9A  F006         	call	_GPIO_WriteOnPin
  5163  0028FA                     
  5164                           ;KeyPad.c: 61:     }
  5165  0028FA  2A0D               	incf	KeyPad_Initialization@u8counter^0,f,c
  5166  0028FC  0E03               	movlw	3
  5167  0028FE  640D               	cpfsgt	KeyPad_Initialization@u8counter^0,c
  5168  002900  EF84  F014         	goto	u2501
  5169  002904  EF86  F014         	goto	u2500
  5170  002908                     u2501:
  5171  002908  EF6F  F014         	goto	l3631
  5172  00290C                     u2500:
  5173  00290C                     
  5174                           ;KeyPad.c: 63:     for(uint8 u8counter = 0u ; u8counter <= 0u + 2u ; u8counter++)
  5175  00290C  0E00               	movlw	0
  5176  00290E  6E0C               	movwf	KeyPad_Initialization@u8counter_170^0,c
  5177  002910                     l3643:
  5178                           
  5179                           ;KeyPad.c: 64:     {;KeyPad.c: 65:         GPIO_SetPinDirection(1u , u8counter , 1u);
  5180  002910  C00C  F006         	movff	KeyPad_Initialization@u8counter_170,GPIO_SetPinDirection@a_u8pin
  5181  002914  0E01               	movlw	1
  5182  002916  6E07               	movwf	GPIO_SetPinDirection@a_u8direction^0,c
  5183  002918  0E01               	movlw	1
  5184  00291A  EC4D  F005         	call	_GPIO_SetPinDirection
  5185  00291E                     
  5186                           ;KeyPad.c: 66:     }
  5187  00291E  2A0C               	incf	KeyPad_Initialization@u8counter_170^0,f,c
  5188  002920  0E02               	movlw	2
  5189  002922  640C               	cpfsgt	KeyPad_Initialization@u8counter_170^0,c
  5190  002924  EF96  F014         	goto	u2511
  5191  002928  EF98  F014         	goto	u2510
  5192  00292C                     u2511:
  5193  00292C  EF88  F014         	goto	l3643
  5194  002930                     u2510:
  5195  002930  0012               	return		;funcret
  5196  002932                     __end_of_KeyPad_Initialization:
  5197                           	opt callstack 0
  5198                           
  5199 ;; *************** function _GPIO_SetPinDirection *****************
  5200 ;; Defined at:
  5201 ;;		line 36 in file "GPIO.c"
  5202 ;; Parameters:    Size  Location     Type
  5203 ;;  a_u8port        1    wreg     unsigned char 
  5204 ;;  a_u8pin         1    5[COMRAM] unsigned char 
  5205 ;;  a_u8directio    1    6[COMRAM] unsigned char 
  5206 ;; Auto vars:     Size  Location     Type
  5207 ;;  a_u8port        1    9[COMRAM] unsigned char 
  5208 ;;  retVal          1    0        enum E10
  5209 ;; Return value:  Size  Location     Type
  5210 ;;                  1    wreg      enum E10
  5211 ;; Registers used:
  5212 ;;		wreg, status,2, status,0
  5213 ;; Tracked objects:
  5214 ;;		On entry : 0/0
  5215 ;;		On exit  : 0/0
  5216 ;;		Unchanged: 0/0
  5217 ;; Data sizes:     COMRAM   BANK0   BANK1   BANK2   BANK3   BANK4   BANK5
  5218 ;;      Params:         2       0       0       0       0       0       0
  5219 ;;      Locals:         2       0       0       0       0       0       0
  5220 ;;      Temps:          2       0       0       0       0       0       0
  5221 ;;      Totals:         6       0       0       0       0       0       0
  5222 ;;Total ram usage:        6 bytes
  5223 ;; Hardware stack levels used:    1
  5224 ;; Hardware stack levels required when called:    3
  5225 ;; This function calls:
  5226 ;;		Nothing
  5227 ;; This function is called by:
  5228 ;;		_KeyPad_Initialization
  5229 ;;		_LCD_Initialization
  5230 ;;		_main
  5231 ;; This function uses a non-reentrant model
  5232 ;;
  5233                           
  5234                           	psect	text33
  5235  000A9A                     __ptext33:
  5236                           	opt callstack 0
  5237  000A9A                     _GPIO_SetPinDirection:
  5238                           	opt callstack 25
  5239                           
  5240                           ;incstack = 0
  5241                           ;GPIO_SetPinDirection@a_u8port stored from wreg
  5242  000A9A  6E0A               	movwf	GPIO_SetPinDirection@a_u8port^0,c
  5243  000A9C                     
  5244                           ;GPIO.c: 41:     switch(a_u8port)
  5245  000A9C  EF78  F006         	goto	l3439
  5246  000AA0                     l3343:
  5247                           
  5248                           ;GPIO.c: 45:             if(a_u8pin <= 7u)
  5249  000AA0  0E08               	movlw	8
  5250  000AA2  6006               	cpfslt	GPIO_SetPinDirection@a_u8pin^0,c
  5251  000AA4  EF56  F005         	goto	u2041
  5252  000AA8  EF58  F005         	goto	u2040
  5253  000AAC                     u2041:
  5254  000AAC  EF89  F005         	goto	l3357
  5255  000AB0                     u2040:
  5256  000AB0                     
  5257                           ;GPIO.c: 46:             {;GPIO.c: 47:                 if(a_u8direction == 1u)
  5258  000AB0  0407               	decf	GPIO_SetPinDirection@a_u8direction^0,w,c
  5259  000AB2  A4D8               	btfss	status,2,c
  5260  000AB4  EF5E  F005         	goto	u2051
  5261  000AB8  EF60  F005         	goto	u2050
  5262  000ABC                     u2051:
  5263  000ABC  EF70  F005         	goto	l3351
  5264  000AC0                     u2050:
  5265  000AC0                     
  5266                           ;GPIO.c: 48:                 {;GPIO.c: 49:                     *(volatile uint8*)0xF92 |
      +                          = 1 << a_u8pin;
  5267  000AC0  C006  F008         	movff	GPIO_SetPinDirection@a_u8pin,??_GPIO_SetPinDirection
  5268  000AC4  0E01               	movlw	1
  5269  000AC6  6E09               	movwf	(??_GPIO_SetPinDirection+1)^0,c
  5270  000AC8  2A08               	incf	??_GPIO_SetPinDirection^0,f,c
  5271  000ACA  EF69  F005         	goto	u2064
  5272  000ACE                     u2065:
  5273  000ACE  90D8               	bcf	status,0,c
  5274  000AD0  3609               	rlcf	(??_GPIO_SetPinDirection+1)^0,f,c
  5275  000AD2                     u2064:
  5276  000AD2  2E08               	decfsz	??_GPIO_SetPinDirection^0,f,c
  5277  000AD4  EF67  F005         	goto	u2065
  5278  000AD8  5009               	movf	(??_GPIO_SetPinDirection+1)^0,w,c
  5279  000ADA  1292               	iorwf	146,f,c	;volatile
  5280  000ADC                     l3349:
  5281                           
  5282                           ;GPIO.c: 51:                 }
  5283  000ADC  EF99  F006         	goto	l94
  5284  000AE0                     l3351:
  5285  000AE0  5007               	movf	GPIO_SetPinDirection@a_u8direction^0,w,c
  5286  000AE2  A4D8               	btfss	status,2,c
  5287  000AE4  EF76  F005         	goto	u2071
  5288  000AE8  EF78  F005         	goto	u2070
  5289  000AEC                     u2071:
  5290  000AEC  EF89  F005         	goto	l3357
  5291  000AF0                     u2070:
  5292  000AF0                     
  5293                           ;GPIO.c: 53:                 {;GPIO.c: 54:                     *(volatile uint8*)0xF92 &
      +                          = ~(1 << a_u8pin);
  5294  000AF0  C006  F008         	movff	GPIO_SetPinDirection@a_u8pin,??_GPIO_SetPinDirection
  5295  000AF4  0E01               	movlw	1
  5296  000AF6  6E09               	movwf	(??_GPIO_SetPinDirection+1)^0,c
  5297  000AF8  2A08               	incf	??_GPIO_SetPinDirection^0,f,c
  5298  000AFA  EF81  F005         	goto	u2084
  5299  000AFE                     u2085:
  5300  000AFE  90D8               	bcf	status,0,c
  5301  000B00  3609               	rlcf	(??_GPIO_SetPinDirection+1)^0,f,c
  5302  000B02                     u2084:
  5303  000B02  2E08               	decfsz	??_GPIO_SetPinDirection^0,f,c
  5304  000B04  EF7F  F005         	goto	u2085
  5305  000B08  5009               	movf	(??_GPIO_SetPinDirection+1)^0,w,c
  5306  000B0A  0AFF               	xorlw	255
  5307  000B0C  1692               	andwf	146,f,c	;volatile
  5308  000B0E  EF6E  F005         	goto	l3349
  5309  000B12                     l3357:
  5310  000B12  EF99  F006         	goto	l94
  5311  000B16                     l3361:
  5312                           
  5313                           ;GPIO.c: 71:             if(a_u8pin <= 7u)
  5314  000B16  0E08               	movlw	8
  5315  000B18  6006               	cpfslt	GPIO_SetPinDirection@a_u8pin^0,c
  5316  000B1A  EF91  F005         	goto	u2091
  5317  000B1E  EF93  F005         	goto	u2090
  5318  000B22                     u2091:
  5319  000B22  EF89  F005         	goto	l3357
  5320  000B26                     u2090:
  5321  000B26                     
  5322                           ;GPIO.c: 72:             {;GPIO.c: 73:                 if(a_u8direction == 1u)
  5323  000B26  0407               	decf	GPIO_SetPinDirection@a_u8direction^0,w,c
  5324  000B28  A4D8               	btfss	status,2,c
  5325  000B2A  EF99  F005         	goto	u2101
  5326  000B2E  EF9B  F005         	goto	u2100
  5327  000B32                     u2101:
  5328  000B32  EFAB  F005         	goto	l3369
  5329  000B36                     u2100:
  5330  000B36                     
  5331                           ;GPIO.c: 74:                 {;GPIO.c: 75:                     *(volatile uint8*)0xF93 |
      +                          = 1 << a_u8pin;
  5332  000B36  C006  F008         	movff	GPIO_SetPinDirection@a_u8pin,??_GPIO_SetPinDirection
  5333  000B3A  0E01               	movlw	1
  5334  000B3C  6E09               	movwf	(??_GPIO_SetPinDirection+1)^0,c
  5335  000B3E  2A08               	incf	??_GPIO_SetPinDirection^0,f,c
  5336  000B40  EFA4  F005         	goto	u2114
  5337  000B44                     u2115:
  5338  000B44  90D8               	bcf	status,0,c
  5339  000B46  3609               	rlcf	(??_GPIO_SetPinDirection+1)^0,f,c
  5340  000B48                     u2114:
  5341  000B48  2E08               	decfsz	??_GPIO_SetPinDirection^0,f,c
  5342  000B4A  EFA2  F005         	goto	u2115
  5343  000B4E  5009               	movf	(??_GPIO_SetPinDirection+1)^0,w,c
  5344  000B50  1293               	iorwf	147,f,c	;volatile
  5345  000B52  EF6E  F005         	goto	l3349
  5346  000B56                     l3369:
  5347  000B56  5007               	movf	GPIO_SetPinDirection@a_u8direction^0,w,c
  5348  000B58  A4D8               	btfss	status,2,c
  5349  000B5A  EFB1  F005         	goto	u2121
  5350  000B5E  EFB3  F005         	goto	u2120
  5351  000B62                     u2121:
  5352  000B62  EF89  F005         	goto	l3357
  5353  000B66                     u2120:
  5354  000B66                     
  5355                           ;GPIO.c: 79:                 {;GPIO.c: 80:                     *(volatile uint8*)0xF93 &
      +                          = ~(1 << a_u8pin);
  5356  000B66  C006  F008         	movff	GPIO_SetPinDirection@a_u8pin,??_GPIO_SetPinDirection
  5357  000B6A  0E01               	movlw	1
  5358  000B6C  6E09               	movwf	(??_GPIO_SetPinDirection+1)^0,c
  5359  000B6E  2A08               	incf	??_GPIO_SetPinDirection^0,f,c
  5360  000B70  EFBC  F005         	goto	u2134
  5361  000B74                     u2135:
  5362  000B74  90D8               	bcf	status,0,c
  5363  000B76  3609               	rlcf	(??_GPIO_SetPinDirection+1)^0,f,c
  5364  000B78                     u2134:
  5365  000B78  2E08               	decfsz	??_GPIO_SetPinDirection^0,f,c
  5366  000B7A  EFBA  F005         	goto	u2135
  5367  000B7E  5009               	movf	(??_GPIO_SetPinDirection+1)^0,w,c
  5368  000B80  0AFF               	xorlw	255
  5369  000B82  1693               	andwf	147,f,c	;volatile
  5370  000B84  EF6E  F005         	goto	l3349
  5371  000B88                     l3379:
  5372                           
  5373                           ;GPIO.c: 97:             if(a_u8pin <= 7u)
  5374  000B88  0E08               	movlw	8
  5375  000B8A  6006               	cpfslt	GPIO_SetPinDirection@a_u8pin^0,c
  5376  000B8C  EFCA  F005         	goto	u2141
  5377  000B90  EFCC  F005         	goto	u2140
  5378  000B94                     u2141:
  5379  000B94  EF89  F005         	goto	l3357
  5380  000B98                     u2140:
  5381  000B98                     
  5382                           ;GPIO.c: 98:             {;GPIO.c: 99:                 if(a_u8direction == 1u)
  5383  000B98  0407               	decf	GPIO_SetPinDirection@a_u8direction^0,w,c
  5384  000B9A  A4D8               	btfss	status,2,c
  5385  000B9C  EFD2  F005         	goto	u2151
  5386  000BA0  EFD4  F005         	goto	u2150
  5387  000BA4                     u2151:
  5388  000BA4  EFE4  F005         	goto	l3387
  5389  000BA8                     u2150:
  5390  000BA8                     
  5391                           ;GPIO.c: 100:                 {;GPIO.c: 101:                     *(volatile uint8*)0xF94
      +                           |= 1 << a_u8pin;
  5392  000BA8  C006  F008         	movff	GPIO_SetPinDirection@a_u8pin,??_GPIO_SetPinDirection
  5393  000BAC  0E01               	movlw	1
  5394  000BAE  6E09               	movwf	(??_GPIO_SetPinDirection+1)^0,c
  5395  000BB0  2A08               	incf	??_GPIO_SetPinDirection^0,f,c
  5396  000BB2  EFDD  F005         	goto	u2164
  5397  000BB6                     u2165:
  5398  000BB6  90D8               	bcf	status,0,c
  5399  000BB8  3609               	rlcf	(??_GPIO_SetPinDirection+1)^0,f,c
  5400  000BBA                     u2164:
  5401  000BBA  2E08               	decfsz	??_GPIO_SetPinDirection^0,f,c
  5402  000BBC  EFDB  F005         	goto	u2165
  5403  000BC0  5009               	movf	(??_GPIO_SetPinDirection+1)^0,w,c
  5404  000BC2  1294               	iorwf	148,f,c	;volatile
  5405  000BC4  EF6E  F005         	goto	l3349
  5406  000BC8                     l3387:
  5407  000BC8  5007               	movf	GPIO_SetPinDirection@a_u8direction^0,w,c
  5408  000BCA  A4D8               	btfss	status,2,c
  5409  000BCC  EFEA  F005         	goto	u2171
  5410  000BD0  EFEC  F005         	goto	u2170
  5411  000BD4                     u2171:
  5412  000BD4  EF89  F005         	goto	l3357
  5413  000BD8                     u2170:
  5414  000BD8                     
  5415                           ;GPIO.c: 105:                 {;GPIO.c: 106:                     *(volatile uint8*)0xF94
      +                           &= ~(1 << a_u8pin);
  5416  000BD8  C006  F008         	movff	GPIO_SetPinDirection@a_u8pin,??_GPIO_SetPinDirection
  5417  000BDC  0E01               	movlw	1
  5418  000BDE  6E09               	movwf	(??_GPIO_SetPinDirection+1)^0,c
  5419  000BE0  2A08               	incf	??_GPIO_SetPinDirection^0,f,c
  5420  000BE2  EFF5  F005         	goto	u2184
  5421  000BE6                     u2185:
  5422  000BE6  90D8               	bcf	status,0,c
  5423  000BE8  3609               	rlcf	(??_GPIO_SetPinDirection+1)^0,f,c
  5424  000BEA                     u2184:
  5425  000BEA  2E08               	decfsz	??_GPIO_SetPinDirection^0,f,c
  5426  000BEC  EFF3  F005         	goto	u2185
  5427  000BF0  5009               	movf	(??_GPIO_SetPinDirection+1)^0,w,c
  5428  000BF2  0AFF               	xorlw	255
  5429  000BF4  1694               	andwf	148,f,c	;volatile
  5430  000BF6  EF6E  F005         	goto	l3349
  5431  000BFA                     l3397:
  5432                           
  5433                           ;GPIO.c: 123:             if(a_u8pin <= 7u)
  5434  000BFA  0E08               	movlw	8
  5435  000BFC  6006               	cpfslt	GPIO_SetPinDirection@a_u8pin^0,c
  5436  000BFE  EF03  F006         	goto	u2191
  5437  000C02  EF05  F006         	goto	u2190
  5438  000C06                     u2191:
  5439  000C06  EF89  F005         	goto	l3357
  5440  000C0A                     u2190:
  5441  000C0A                     
  5442                           ;GPIO.c: 124:             {;GPIO.c: 125:                 if(a_u8direction == 1u)
  5443  000C0A  0407               	decf	GPIO_SetPinDirection@a_u8direction^0,w,c
  5444  000C0C  A4D8               	btfss	status,2,c
  5445  000C0E  EF0B  F006         	goto	u2201
  5446  000C12  EF0D  F006         	goto	u2200
  5447  000C16                     u2201:
  5448  000C16  EF1D  F006         	goto	l3405
  5449  000C1A                     u2200:
  5450  000C1A                     
  5451                           ;GPIO.c: 126:                 {;GPIO.c: 127:                     *(volatile uint8*)0xF95
      +                           |= 1 << a_u8pin;
  5452  000C1A  C006  F008         	movff	GPIO_SetPinDirection@a_u8pin,??_GPIO_SetPinDirection
  5453  000C1E  0E01               	movlw	1
  5454  000C20  6E09               	movwf	(??_GPIO_SetPinDirection+1)^0,c
  5455  000C22  2A08               	incf	??_GPIO_SetPinDirection^0,f,c
  5456  000C24  EF16  F006         	goto	u2214
  5457  000C28                     u2215:
  5458  000C28  90D8               	bcf	status,0,c
  5459  000C2A  3609               	rlcf	(??_GPIO_SetPinDirection+1)^0,f,c
  5460  000C2C                     u2214:
  5461  000C2C  2E08               	decfsz	??_GPIO_SetPinDirection^0,f,c
  5462  000C2E  EF14  F006         	goto	u2215
  5463  000C32  5009               	movf	(??_GPIO_SetPinDirection+1)^0,w,c
  5464  000C34  1295               	iorwf	149,f,c	;volatile
  5465  000C36  EF6E  F005         	goto	l3349
  5466  000C3A                     l3405:
  5467  000C3A  5007               	movf	GPIO_SetPinDirection@a_u8direction^0,w,c
  5468  000C3C  A4D8               	btfss	status,2,c
  5469  000C3E  EF23  F006         	goto	u2221
  5470  000C42  EF25  F006         	goto	u2220
  5471  000C46                     u2221:
  5472  000C46  EF89  F005         	goto	l3357
  5473  000C4A                     u2220:
  5474  000C4A                     
  5475                           ;GPIO.c: 131:                 {;GPIO.c: 132:                     *(volatile uint8*)0xF95
      +                           &= ~(1 << a_u8pin);
  5476  000C4A  C006  F008         	movff	GPIO_SetPinDirection@a_u8pin,??_GPIO_SetPinDirection
  5477  000C4E  0E01               	movlw	1
  5478  000C50  6E09               	movwf	(??_GPIO_SetPinDirection+1)^0,c
  5479  000C52  2A08               	incf	??_GPIO_SetPinDirection^0,f,c
  5480  000C54  EF2E  F006         	goto	u2234
  5481  000C58                     u2235:
  5482  000C58  90D8               	bcf	status,0,c
  5483  000C5A  3609               	rlcf	(??_GPIO_SetPinDirection+1)^0,f,c
  5484  000C5C                     u2234:
  5485  000C5C  2E08               	decfsz	??_GPIO_SetPinDirection^0,f,c
  5486  000C5E  EF2C  F006         	goto	u2235
  5487  000C62  5009               	movf	(??_GPIO_SetPinDirection+1)^0,w,c
  5488  000C64  0AFF               	xorlw	255
  5489  000C66  1695               	andwf	149,f,c	;volatile
  5490  000C68  EF6E  F005         	goto	l3349
  5491  000C6C                     l3415:
  5492                           
  5493                           ;GPIO.c: 149:             if(a_u8pin < 4u)
  5494  000C6C  0E04               	movlw	4
  5495  000C6E  6006               	cpfslt	GPIO_SetPinDirection@a_u8pin^0,c
  5496  000C70  EF3C  F006         	goto	u2241
  5497  000C74  EF3E  F006         	goto	u2240
  5498  000C78                     u2241:
  5499  000C78  EF89  F005         	goto	l3357
  5500  000C7C                     u2240:
  5501  000C7C                     
  5502                           ;GPIO.c: 150:             {;GPIO.c: 151:                 if(a_u8direction == 1u)
  5503  000C7C  0407               	decf	GPIO_SetPinDirection@a_u8direction^0,w,c
  5504  000C7E  A4D8               	btfss	status,2,c
  5505  000C80  EF44  F006         	goto	u2251
  5506  000C84  EF46  F006         	goto	u2250
  5507  000C88                     u2251:
  5508  000C88  EF56  F006         	goto	l3423
  5509  000C8C                     u2250:
  5510  000C8C                     
  5511                           ;GPIO.c: 152:                 {;GPIO.c: 153:                     *(volatile uint8*)0xF96
      +                           |= 1 << a_u8pin;
  5512  000C8C  C006  F008         	movff	GPIO_SetPinDirection@a_u8pin,??_GPIO_SetPinDirection
  5513  000C90  0E01               	movlw	1
  5514  000C92  6E09               	movwf	(??_GPIO_SetPinDirection+1)^0,c
  5515  000C94  2A08               	incf	??_GPIO_SetPinDirection^0,f,c
  5516  000C96  EF4F  F006         	goto	u2264
  5517  000C9A                     u2265:
  5518  000C9A  90D8               	bcf	status,0,c
  5519  000C9C  3609               	rlcf	(??_GPIO_SetPinDirection+1)^0,f,c
  5520  000C9E                     u2264:
  5521  000C9E  2E08               	decfsz	??_GPIO_SetPinDirection^0,f,c
  5522  000CA0  EF4D  F006         	goto	u2265
  5523  000CA4  5009               	movf	(??_GPIO_SetPinDirection+1)^0,w,c
  5524  000CA6  1296               	iorwf	150,f,c	;volatile
  5525  000CA8  EF6E  F005         	goto	l3349
  5526  000CAC                     l3423:
  5527  000CAC  5007               	movf	GPIO_SetPinDirection@a_u8direction^0,w,c
  5528  000CAE  A4D8               	btfss	status,2,c
  5529  000CB0  EF5C  F006         	goto	u2271
  5530  000CB4  EF5E  F006         	goto	u2270
  5531  000CB8                     u2271:
  5532  000CB8  EF89  F005         	goto	l3357
  5533  000CBC                     u2270:
  5534  000CBC  0E03               	movlw	3
  5535  000CBE  1806               	xorwf	GPIO_SetPinDirection@a_u8pin^0,w,c
  5536  000CC0  B4D8               	btfsc	status,2,c
  5537  000CC2  EF65  F006         	goto	u2281
  5538  000CC6  EF67  F006         	goto	u2280
  5539  000CCA                     u2281:
  5540  000CCA  EF89  F005         	goto	l3357
  5541  000CCE                     u2280:
  5542  000CCE                     
  5543                           ;GPIO.c: 157:                 {;GPIO.c: 158:                     *(volatile uint8*)0xF96
      +                           &= ~(1 << a_u8pin);
  5544  000CCE  C006  F008         	movff	GPIO_SetPinDirection@a_u8pin,??_GPIO_SetPinDirection
  5545  000CD2  0E01               	movlw	1
  5546  000CD4  6E09               	movwf	(??_GPIO_SetPinDirection+1)^0,c
  5547  000CD6  2A08               	incf	??_GPIO_SetPinDirection^0,f,c
  5548  000CD8  EF70  F006         	goto	u2294
  5549  000CDC                     u2295:
  5550  000CDC  90D8               	bcf	status,0,c
  5551  000CDE  3609               	rlcf	(??_GPIO_SetPinDirection+1)^0,f,c
  5552  000CE0                     u2294:
  5553  000CE0  2E08               	decfsz	??_GPIO_SetPinDirection^0,f,c
  5554  000CE2  EF6E  F006         	goto	u2295
  5555  000CE6  5009               	movf	(??_GPIO_SetPinDirection+1)^0,w,c
  5556  000CE8  0AFF               	xorlw	255
  5557  000CEA  1696               	andwf	150,f,c	;volatile
  5558  000CEC  EF6E  F005         	goto	l3349
  5559  000CF0                     l3439:
  5560  000CF0  500A               	movf	GPIO_SetPinDirection@a_u8port^0,w,c
  5561  000CF2  6E08               	movwf	??_GPIO_SetPinDirection^0,c
  5562  000CF4  6A09               	clrf	(??_GPIO_SetPinDirection+1)^0,c
  5563                           
  5564                           ; Switch on 2 bytes has been partitioned into a top level switch of size 1, and 1 sub-sw
      +                          itches
  5565                           ; Switch size 1, requested type "simple"
  5566                           ; Number of cases is 1, Range of values is 0 to 0
  5567                           ; switch strategies available:
  5568                           ; Name         Instructions Cycles
  5569                           ; simple_byte            4     3 (average)
  5570                           ;	Chosen strategy is simple_byte
  5571  000CF6  5009               	movf	(??_GPIO_SetPinDirection+1)^0,w,c
  5572  000CF8  0A00               	xorlw	0	; case 0
  5573  000CFA  B4D8               	btfsc	status,2,c
  5574  000CFC  EF82  F006         	goto	l4609
  5575  000D00  EF89  F005         	goto	l3357
  5576  000D04                     l4609:
  5577                           
  5578                           ; Switch size 1, requested type "simple"
  5579                           ; Number of cases is 5, Range of values is 0 to 4
  5580                           ; switch strategies available:
  5581                           ; Name         Instructions Cycles
  5582                           ; simple_byte           16     9 (average)
  5583                           ;	Chosen strategy is simple_byte
  5584  000D04  5008               	movf	??_GPIO_SetPinDirection^0,w,c
  5585  000D06  0A00               	xorlw	0	; case 0
  5586  000D08  B4D8               	btfsc	status,2,c
  5587  000D0A  EF50  F005         	goto	l3343
  5588  000D0E  0A01               	xorlw	1	; case 1
  5589  000D10  B4D8               	btfsc	status,2,c
  5590  000D12  EF8B  F005         	goto	l3361
  5591  000D16  0A03               	xorlw	3	; case 2
  5592  000D18  B4D8               	btfsc	status,2,c
  5593  000D1A  EFC4  F005         	goto	l3379
  5594  000D1E  0A01               	xorlw	1	; case 3
  5595  000D20  B4D8               	btfsc	status,2,c
  5596  000D22  EFFD  F005         	goto	l3397
  5597  000D26  0A07               	xorlw	7	; case 4
  5598  000D28  B4D8               	btfsc	status,2,c
  5599  000D2A  EF36  F006         	goto	l3415
  5600  000D2E  EF89  F005         	goto	l3357
  5601  000D32                     l94:
  5602  000D32  0012               	return		;funcret
  5603  000D34                     __end_of_GPIO_SetPinDirection:
  5604                           	opt callstack 0
  5605                           
  5606 ;; *************** function _Heating_process_has_done_function *****************
  5607 ;; Defined at:
  5608 ;;		line 477 in file "microwave.c"
  5609 ;; Parameters:    Size  Location     Type
  5610 ;;		None
  5611 ;; Auto vars:     Size  Location     Type
  5612 ;;		None
  5613 ;; Return value:  Size  Location     Type
  5614 ;;                  1    wreg      void 
  5615 ;; Registers used:
  5616 ;;		wreg, fsr0l, fsr0h, status,2, status,0, tblptrl, tblptrh, tblptru, cstack
  5617 ;; Tracked objects:
  5618 ;;		On entry : 0/0
  5619 ;;		On exit  : 0/0
  5620 ;;		Unchanged: 0/0
  5621 ;; Data sizes:     COMRAM   BANK0   BANK1   BANK2   BANK3   BANK4   BANK5
  5622 ;;      Params:         0       0       0       0       0       0       0
  5623 ;;      Locals:         0       0       0       0       0       0       0
  5624 ;;      Temps:          0       0       0       0       0       0       0
  5625 ;;      Totals:         0       0       0       0       0       0       0
  5626 ;;Total ram usage:        0 bytes
  5627 ;; Hardware stack levels used:    1
  5628 ;; Hardware stack levels required when called:    8
  5629 ;; This function calls:
  5630 ;;		_GPIO_WriteOnPin
  5631 ;;		_Global_interrupt_disable
  5632 ;;		_LCD_ClearScreen
  5633 ;;		_LCD_SendDataString
  5634 ;;		_LCD_SetDisplayPosition
  5635 ;;		_PWM_Stop
  5636 ;;		_Timer0_disable
  5637 ;;		_Timer0_disable_overflow_interrupt
  5638 ;; This function is called by:
  5639 ;;		_main
  5640 ;; This function uses a non-reentrant model
  5641 ;;
  5642                           
  5643                           	psect	text34
  5644  0015F0                     __ptext34:
  5645                           	opt callstack 0
  5646  0015F0                     _Heating_process_has_done_function:
  5647                           	opt callstack 22
  5648  0015F0                     
  5649                           ;microwave.c: 480:     static uint16 u8counter = 0;;microwave.c: 482:     GPIO_WriteOnPi
      +                          n(2u, 1u , 0u);
  5650  0015F0  0E01               	movlw	1
  5651  0015F2  6E06               	movwf	GPIO_WriteOnPin@a_u8pin^0,c
  5652  0015F4  0E00               	movlw	0
  5653  0015F6  6E07               	movwf	GPIO_WriteOnPin@a_u8value^0,c
  5654  0015F8  0E02               	movlw	2
  5655  0015FA  EC9A  F006         	call	_GPIO_WriteOnPin
  5656                           
  5657                           ;microwave.c: 484:     GPIO_WriteOnPin(2u , 5u , 0u);
  5658  0015FE  0E05               	movlw	5
  5659  001600  6E06               	movwf	GPIO_WriteOnPin@a_u8pin^0,c
  5660  001602  0E00               	movlw	0
  5661  001604  6E07               	movwf	GPIO_WriteOnPin@a_u8value^0,c
  5662  001606  0E02               	movlw	2
  5663  001608  EC9A  F006         	call	_GPIO_WriteOnPin
  5664                           
  5665                           ;microwave.c: 486:     GPIO_WriteOnPin(1u , 7u , 0u);
  5666  00160C  0E07               	movlw	7
  5667  00160E  6E06               	movwf	GPIO_WriteOnPin@a_u8pin^0,c
  5668  001610  0E00               	movlw	0
  5669  001612  6E07               	movwf	GPIO_WriteOnPin@a_u8value^0,c
  5670  001614  0E01               	movlw	1
  5671  001616  EC9A  F006         	call	_GPIO_WriteOnPin
  5672                           
  5673                           ;microwave.c: 488:     PWM_Stop(PWM_CHANNEL_1);
  5674  00161A  0E00               	movlw	0
  5675  00161C  ECB6  F014         	call	_PWM_Stop
  5676  001620                     
  5677                           ;microwave.c: 490:     Global_interrupt_disable();
  5678  001620  EC59  F015         	call	_Global_interrupt_disable	;wreg free
  5679  001624                     
  5680                           ;microwave.c: 491:     Timer0_disable_overflow_interrupt();
  5681  001624  EC55  F015         	call	_Timer0_disable_overflow_interrupt	;wreg free
  5682  001628                     
  5683                           ;microwave.c: 492:     Timer0_disable();
  5684  001628  EC57  F015         	call	_Timer0_disable	;wreg free
  5685  00162C                     
  5686                           ;microwave.c: 494:     if(u8counter == 0)
  5687  00162C  503E               	movf	Heating_process_has_done_function@u8counter^0,w,c
  5688  00162E  103F               	iorwf	(Heating_process_has_done_function@u8counter+1)^0,w,c
  5689  001630  A4D8               	btfss	status,2,c
  5690  001632  EF1D  F00B         	goto	u3081
  5691  001636  EF1F  F00B         	goto	u3080
  5692  00163A                     u3081:
  5693  00163A  EF60  F00B         	goto	l4377
  5694  00163E                     u3080:
  5695  00163E                     
  5696                           ;microwave.c: 495:     {;microwave.c: 496:         LCD_SetDisplayPosition(0 , 1);
  5697  00163E  0E01               	movlw	1
  5698  001640  6E0D               	movwf	LCD_SetDisplayPosition@a_u8position_Y^0,c
  5699  001642  0E00               	movlw	0
  5700  001644  ECFA  F010         	call	_LCD_SetDisplayPosition
  5701  001648                     
  5702                           ;microwave.c: 497:         LCD_SendDataString("Timer:");
  5703  001648  0ECD               	movlw	low STR_5
  5704  00164A  6E12               	movwf	LCD_SendDataString@a_u8data_ptr^0,c
  5705  00164C  0E06               	movlw	high STR_5
  5706  00164E  6E13               	movwf	(LCD_SendDataString@a_u8data_ptr+1)^0,c
  5707  001650  EC0F  F014         	call	_LCD_SendDataString	;wreg free
  5708  001654                     
  5709                           ;microwave.c: 498:         LCD_SetDisplayPosition(11 , 1);
  5710  001654  0E01               	movlw	1
  5711  001656  6E0D               	movwf	LCD_SetDisplayPosition@a_u8position_Y^0,c
  5712  001658  0E0B               	movlw	11
  5713  00165A  ECFA  F010         	call	_LCD_SetDisplayPosition
  5714                           
  5715                           ;microwave.c: 499:         LCD_SendDataString("00:00");
  5716  00165E  0ED4               	movlw	low STR_12
  5717  001660  6E12               	movwf	LCD_SendDataString@a_u8data_ptr^0,c
  5718  001662  0E06               	movlw	high STR_12
  5719  001664  6E13               	movwf	(LCD_SendDataString@a_u8data_ptr+1)^0,c
  5720  001666  EC0F  F014         	call	_LCD_SendDataString	;wreg free
  5721                           
  5722                           ;microwave.c: 500:         LCD_SendDataString("Heating finished");
  5723  00166A  0E23               	movlw	low STR_13
  5724  00166C  6E12               	movwf	LCD_SendDataString@a_u8data_ptr^0,c
  5725  00166E  0E06               	movlw	high STR_13
  5726  001670  6E13               	movwf	(LCD_SendDataString@a_u8data_ptr+1)^0,c
  5727  001672  EC0F  F014         	call	_LCD_SendDataString	;wreg free
  5728  001676                     
  5729                           ;microwave.c: 501:         LCD_SetDisplayPosition(0 , 3);
  5730  001676  0E03               	movlw	3
  5731  001678  6E0D               	movwf	LCD_SetDisplayPosition@a_u8position_Y^0,c
  5732  00167A  0E00               	movlw	0
  5733  00167C  ECFA  F010         	call	_LCD_SetDisplayPosition
  5734  001680                     
  5735                           ;microwave.c: 502:         LCD_SendDataString("PRESS '#' to");
  5736  001680  0E95               	movlw	low STR_14
  5737  001682  6E12               	movwf	LCD_SendDataString@a_u8data_ptr^0,c
  5738  001684  0E06               	movlw	high STR_14
  5739  001686  6E13               	movwf	(LCD_SendDataString@a_u8data_ptr+1)^0,c
  5740  001688  EC0F  F014         	call	_LCD_SendDataString	;wreg free
  5741                           
  5742                           ;microwave.c: 503:         LCD_SetDisplayPosition(5 , 4);
  5743  00168C  0E04               	movlw	4
  5744  00168E  6E0D               	movwf	LCD_SetDisplayPosition@a_u8position_Y^0,c
  5745  001690  0E05               	movlw	5
  5746  001692  ECFA  F010         	call	_LCD_SetDisplayPosition
  5747  001696                     
  5748                           ;microwave.c: 504:         LCD_SendDataString("return home");
  5749  001696  0EA2               	movlw	low STR_15
  5750  001698  6E12               	movwf	LCD_SendDataString@a_u8data_ptr^0,c
  5751  00169A  0E06               	movlw	high STR_15
  5752  00169C  6E13               	movwf	(LCD_SendDataString@a_u8data_ptr+1)^0,c
  5753  00169E  EC0F  F014         	call	_LCD_SendDataString	;wreg free
  5754  0016A2                     
  5755                           ;microwave.c: 505:         LCD_SetDisplayPosition(11 , 1);
  5756  0016A2  0E01               	movlw	1
  5757  0016A4  6E0D               	movwf	LCD_SetDisplayPosition@a_u8position_Y^0,c
  5758  0016A6  0E0B               	movlw	11
  5759  0016A8  ECFA  F010         	call	_LCD_SetDisplayPosition
  5760                           
  5761                           ;microwave.c: 506:         LCD_SendDataString("00:00");
  5762  0016AC  0ED4               	movlw	low STR_12
  5763  0016AE  6E12               	movwf	LCD_SendDataString@a_u8data_ptr^0,c
  5764  0016B0  0E06               	movlw	high STR_12
  5765  0016B2  6E13               	movwf	(LCD_SendDataString@a_u8data_ptr+1)^0,c
  5766  0016B4  EC0F  F014         	call	_LCD_SendDataString	;wreg free
  5767  0016B8                     l4375:
  5768                           
  5769                           ;microwave.c: 507:         u8counter++;
  5770  0016B8  4A3E               	infsnz	Heating_process_has_done_function@u8counter^0,f,c
  5771  0016BA  2A3F               	incf	(Heating_process_has_done_function@u8counter+1)^0,f,c
  5772                           
  5773                           ;microwave.c: 508:     }
  5774  0016BC  EF9E  F00B         	goto	l644
  5775  0016C0                     l4377:
  5776  0016C0  503F               	movf	(Heating_process_has_done_function@u8counter+1)^0,w,c
  5777  0016C2  E107               	bnz	u3091
  5778  0016C4  0EFA               	movlw	250
  5779  0016C6  5C3E               	subwf	Heating_process_has_done_function@u8counter^0,w,c
  5780  0016C8  B0D8               	btfsc	status,0,c
  5781  0016CA  EF69  F00B         	goto	u3091
  5782  0016CE  EF6B  F00B         	goto	u3090
  5783  0016D2                     u3091:
  5784  0016D2  EF76  F00B         	goto	l4383
  5785  0016D6                     u3090:
  5786  0016D6                     
  5787                           ;microwave.c: 510:     {;microwave.c: 511:         u8counter++;
  5788  0016D6  4A3E               	infsnz	Heating_process_has_done_function@u8counter^0,f,c
  5789  0016D8  2A3F               	incf	(Heating_process_has_done_function@u8counter+1)^0,f,c
  5790  0016DA                     
  5791                           ;microwave.c: 512:         GPIO_WriteOnPin(2u , 1u , 0u);
  5792  0016DA  0E01               	movlw	1
  5793  0016DC  6E06               	movwf	GPIO_WriteOnPin@a_u8pin^0,c
  5794  0016DE  0E00               	movlw	0
  5795  0016E0  6E07               	movwf	GPIO_WriteOnPin@a_u8value^0,c
  5796  0016E2  0E02               	movlw	2
  5797  0016E4  EC9A  F006         	call	_GPIO_WriteOnPin
  5798                           
  5799                           ;microwave.c: 513:     }
  5800  0016E8  EF9E  F00B         	goto	l644
  5801  0016EC                     l4383:
  5802  0016EC  0EFA               	movlw	250
  5803  0016EE  183E               	xorwf	Heating_process_has_done_function@u8counter^0,w,c
  5804  0016F0  103F               	iorwf	(Heating_process_has_done_function@u8counter+1)^0,w,c
  5805  0016F2  A4D8               	btfss	status,2,c
  5806  0016F4  EF7E  F00B         	goto	u3101
  5807  0016F8  EF80  F00B         	goto	u3100
  5808  0016FC                     u3101:
  5809  0016FC  EF84  F00B         	goto	l4389
  5810  001700                     u3100:
  5811  001700                     
  5812                           ;microwave.c: 515:     {;microwave.c: 516:         LCD_ClearScreen();
  5813  001700  EC39  F015         	call	_LCD_ClearScreen	;wreg free
  5814  001704  EF5C  F00B         	goto	l4375
  5815  001708                     l4389:
  5816  001708  0EF4               	movlw	244
  5817  00170A  5C3E               	subwf	Heating_process_has_done_function@u8counter^0,w,c
  5818  00170C  0E01               	movlw	1
  5819  00170E  583F               	subwfb	(Heating_process_has_done_function@u8counter+1)^0,w,c
  5820  001710  B0D8               	btfsc	status,0,c
  5821  001712  EF8D  F00B         	goto	u3111
  5822  001716  EF8F  F00B         	goto	u3110
  5823  00171A                     u3111:
  5824  00171A  EF9A  F00B         	goto	l4395
  5825  00171E                     u3110:
  5826  00171E                     
  5827                           ;microwave.c: 520:     {;microwave.c: 521:         u8counter++;
  5828  00171E  4A3E               	infsnz	Heating_process_has_done_function@u8counter^0,f,c
  5829  001720  2A3F               	incf	(Heating_process_has_done_function@u8counter+1)^0,f,c
  5830  001722                     
  5831                           ;microwave.c: 522:         GPIO_WriteOnPin(2u , 1u , 1u);
  5832  001722  0E01               	movlw	1
  5833  001724  6E06               	movwf	GPIO_WriteOnPin@a_u8pin^0,c
  5834  001726  0E01               	movlw	1
  5835  001728  6E07               	movwf	GPIO_WriteOnPin@a_u8value^0,c
  5836  00172A  0E02               	movlw	2
  5837  00172C  EC9A  F006         	call	_GPIO_WriteOnPin
  5838                           
  5839                           ;microwave.c: 523:     }
  5840  001730  EF9E  F00B         	goto	l644
  5841  001734                     l4395:
  5842                           
  5843                           ;microwave.c: 525:     {;microwave.c: 526:         u8counter = 0;
  5844  001734  0E00               	movlw	0
  5845  001736  6E3F               	movwf	(Heating_process_has_done_function@u8counter+1)^0,c
  5846  001738  0E00               	movlw	0
  5847  00173A  6E3E               	movwf	Heating_process_has_done_function@u8counter^0,c
  5848  00173C                     l644:
  5849  00173C  0012               	return		;funcret
  5850  00173E                     __end_of_Heating_process_has_done_function:
  5851                           	opt callstack 0
  5852                           
  5853 ;; *************** function _Timer0_disable_overflow_interrupt *****************
  5854 ;; Defined at:
  5855 ;;		line 58 in file "interrupt.c"
  5856 ;; Parameters:    Size  Location     Type
  5857 ;;		None
  5858 ;; Auto vars:     Size  Location     Type
  5859 ;;		None
  5860 ;; Return value:  Size  Location     Type
  5861 ;;                  1    wreg      void 
  5862 ;; Registers used:
  5863 ;;		status,2, status,0
  5864 ;; Tracked objects:
  5865 ;;		On entry : 0/0
  5866 ;;		On exit  : 0/0
  5867 ;;		Unchanged: 0/0
  5868 ;; Data sizes:     COMRAM   BANK0   BANK1   BANK2   BANK3   BANK4   BANK5
  5869 ;;      Params:         0       0       0       0       0       0       0
  5870 ;;      Locals:         0       0       0       0       0       0       0
  5871 ;;      Temps:          0       0       0       0       0       0       0
  5872 ;;      Totals:         0       0       0       0       0       0       0
  5873 ;;Total ram usage:        0 bytes
  5874 ;; Hardware stack levels used:    1
  5875 ;; Hardware stack levels required when called:    3
  5876 ;; This function calls:
  5877 ;;		Nothing
  5878 ;; This function is called by:
  5879 ;;		_If_heating_is_canceled_function
  5880 ;;		_Heating_process_has_done_function
  5881 ;; This function uses a non-reentrant model
  5882 ;;
  5883                           
  5884                           	psect	text35
  5885  002AAA                     __ptext35:
  5886                           	opt callstack 0
  5887  002AAA                     _Timer0_disable_overflow_interrupt:
  5888                           	opt callstack 26
  5889  002AAA                     
  5890                           ;interrupt.c: 60:     *(volatile uint8*)0xFF2 &= ~(1 << 5u);
  5891  002AAA  9AF2               	bcf	242,5,c	;volatile
  5892  002AAC  0012               	return		;funcret
  5893  002AAE                     __end_of_Timer0_disable_overflow_interrupt:
  5894                           	opt callstack 0
  5895                           
  5896 ;; *************** function _Timer0_disable *****************
  5897 ;; Defined at:
  5898 ;;		line 107 in file "timers.c"
  5899 ;; Parameters:    Size  Location     Type
  5900 ;;		None
  5901 ;; Auto vars:     Size  Location     Type
  5902 ;;		None
  5903 ;; Return value:  Size  Location     Type
  5904 ;;                  1    wreg      void 
  5905 ;; Registers used:
  5906 ;;		status,2, status,0
  5907 ;; Tracked objects:
  5908 ;;		On entry : 0/0
  5909 ;;		On exit  : 0/0
  5910 ;;		Unchanged: 0/0
  5911 ;; Data sizes:     COMRAM   BANK0   BANK1   BANK2   BANK3   BANK4   BANK5
  5912 ;;      Params:         0       0       0       0       0       0       0
  5913 ;;      Locals:         0       0       0       0       0       0       0
  5914 ;;      Temps:          0       0       0       0       0       0       0
  5915 ;;      Totals:         0       0       0       0       0       0       0
  5916 ;;Total ram usage:        0 bytes
  5917 ;; Hardware stack levels used:    1
  5918 ;; Hardware stack levels required when called:    3
  5919 ;; This function calls:
  5920 ;;		Nothing
  5921 ;; This function is called by:
  5922 ;;		_If_heating_is_canceled_function
  5923 ;;		_Heating_process_has_done_function
  5924 ;; This function uses a non-reentrant model
  5925 ;;
  5926                           
  5927                           	psect	text36
  5928  002AAE                     __ptext36:
  5929                           	opt callstack 0
  5930  002AAE                     _Timer0_disable:
  5931                           	opt callstack 26
  5932  002AAE                     
  5933                           ;timers.c: 109:     *(volatile uint8*)0xFD5 &= ~(1 << 7u);
  5934  002AAE  9ED5               	bcf	213,7,c	;volatile
  5935  002AB0  0012               	return		;funcret
  5936  002AB2                     __end_of_Timer0_disable:
  5937                           	opt callstack 0
  5938                           
  5939 ;; *************** function _PWM_Stop *****************
  5940 ;; Defined at:
  5941 ;;		line 109 in file "PWM.c"
  5942 ;; Parameters:    Size  Location     Type
  5943 ;;  a_PWM_channe    1    wreg     enum E10
  5944 ;; Auto vars:     Size  Location     Type
  5945 ;;  a_PWM_channe    1    5[COMRAM] enum E10
  5946 ;; Return value:  Size  Location     Type
  5947 ;;                  1    wreg      void 
  5948 ;; Registers used:
  5949 ;;		wreg, status,2, status,0
  5950 ;; Tracked objects:
  5951 ;;		On entry : 0/0
  5952 ;;		On exit  : 0/0
  5953 ;;		Unchanged: 0/0
  5954 ;; Data sizes:     COMRAM   BANK0   BANK1   BANK2   BANK3   BANK4   BANK5
  5955 ;;      Params:         0       0       0       0       0       0       0
  5956 ;;      Locals:         1       0       0       0       0       0       0
  5957 ;;      Temps:          0       0       0       0       0       0       0
  5958 ;;      Totals:         1       0       0       0       0       0       0
  5959 ;;Total ram usage:        1 bytes
  5960 ;; Hardware stack levels used:    1
  5961 ;; Hardware stack levels required when called:    3
  5962 ;; This function calls:
  5963 ;;		Nothing
  5964 ;; This function is called by:
  5965 ;;		_If_heating_is_canceled_function
  5966 ;;		_Heating_process_has_done_function
  5967 ;; This function uses a non-reentrant model
  5968 ;;
  5969                           
  5970                           	psect	text37
  5971  00296C                     __ptext37:
  5972                           	opt callstack 0
  5973  00296C                     _PWM_Stop:
  5974                           	opt callstack 26
  5975                           
  5976                           ;incstack = 0
  5977                           ;PWM_Stop@a_PWM_channel_t stored from wreg
  5978  00296C  6E06               	movwf	PWM_Stop@a_PWM_channel_t^0,c
  5979  00296E                     
  5980                           ;PWM.c: 109: void PWM_Stop(EnumPWM_channel_t a_PWM_channel_t);PWM.c: 110: {;PWM.c: 112: 
      +                              if(a_PWM_channel_t == PWM_CHANNEL_1)
  5981  00296E  5006               	movf	PWM_Stop@a_PWM_channel_t^0,w,c
  5982  002970  A4D8               	btfss	status,2,c
  5983  002972  EFBD  F014         	goto	u2741
  5984  002976  EFBF  F014         	goto	u2740
  5985  00297A                     u2741:
  5986  00297A  EFC6  F014         	goto	l3827
  5987  00297E                     u2740:
  5988  00297E                     
  5989                           ;PWM.c: 113:     {;PWM.c: 115:         *(volatile uint8*)0xFBD &= ~(1 << 3u);
  5990  00297E  96BD               	bcf	189,3,c	;volatile
  5991                           
  5992                           ;PWM.c: 116:         *(volatile uint8*)0xFBD &= ~(1 << 2u);
  5993  002980  94BD               	bcf	189,2,c	;volatile
  5994                           
  5995                           ;PWM.c: 117:         *(volatile uint8*)0xFBD &= ~(1 << 1u);
  5996  002982  92BD               	bcf	189,1,c	;volatile
  5997                           
  5998                           ;PWM.c: 118:         *(volatile uint8*)0xFBD &= ~(1 << 0u);
  5999  002984  90BD               	bcf	189,0,c	;volatile
  6000                           
  6001                           ;PWM.c: 120:         *(volatile uint8*)0xF8B &= ~(1 << 2);
  6002  002986  948B               	bcf	139,2,c	;volatile
  6003                           
  6004                           ;PWM.c: 121:     }
  6005  002988  EFCB  F014         	goto	l689
  6006  00298C                     l3827:
  6007                           
  6008                           ;PWM.c: 123:     {;PWM.c: 125:         *(volatile uint8*)0xFBA &= ~(1 << 3u);
  6009  00298C  96BA               	bcf	186,3,c	;volatile
  6010                           
  6011                           ;PWM.c: 126:         *(volatile uint8*)0xFBA &= ~(1 << 2u);
  6012  00298E  94BA               	bcf	186,2,c	;volatile
  6013                           
  6014                           ;PWM.c: 127:         *(volatile uint8*)0xFBA &= ~(1 << 1u);
  6015  002990  92BA               	bcf	186,1,c	;volatile
  6016                           
  6017                           ;PWM.c: 130:         if(1u == 1u)
  6018  002992  90BA               	bcf	186,0,c	;volatile
  6019                           
  6020                           ;PWM.c: 131:         {;PWM.c: 133:             *(volatile uint8*)0xF8B &= ~(1 << 1);
  6021  002994  928B               	bcf	139,1,c	;volatile
  6022  002996                     l689:
  6023  002996  0012               	return		;funcret
  6024  002998                     __end_of_PWM_Stop:
  6025                           	opt callstack 0
  6026                           
  6027 ;; *************** function _LCD_SendDataString *****************
  6028 ;; Defined at:
  6029 ;;		line 208 in file "LCD.c"
  6030 ;; Parameters:    Size  Location     Type
  6031 ;;  a_u8data_ptr    2   17[COMRAM] PTR unsigned char 
  6032 ;;		 -> STR_27(17), STR_26(17), STR_25(17), STR_24(17), 
  6033 ;;		 -> STR_23(13), STR_22(6), STR_21(6), STR_20(10), 
  6034 ;;		 -> STR_19(10), STR_18(17), STR_17(11), STR_16(6), 
  6035 ;;		 -> STR_15(12), STR_14(13), STR_13(17), STR_12(6), 
  6036 ;;		 -> STR_11(7), STR_10(17), STR_9(17), STR_8(16), 
  6037 ;;		 -> STR_7(17), STR_6(13), STR_5(7), g_u8timer_arr(6), 
  6038 ;;		 -> STR_4(7), STR_3(7), STR_2(7), STR_1(7), 
  6039 ;; Auto vars:     Size  Location     Type
  6040 ;;		None
  6041 ;; Return value:  Size  Location     Type
  6042 ;;                  1    wreg      void 
  6043 ;; Registers used:
  6044 ;;		wreg, fsr0l, fsr0h, status,2, status,0, tblptrl, tblptrh, tblptru, cstack
  6045 ;; Tracked objects:
  6046 ;;		On entry : 0/0
  6047 ;;		On exit  : 0/0
  6048 ;;		Unchanged: 0/0
  6049 ;; Data sizes:     COMRAM   BANK0   BANK1   BANK2   BANK3   BANK4   BANK5
  6050 ;;      Params:         2       0       0       0       0       0       0
  6051 ;;      Locals:         0       0       0       0       0       0       0
  6052 ;;      Temps:          0       0       0       0       0       0       0
  6053 ;;      Totals:         2       0       0       0       0       0       0
  6054 ;;Total ram usage:        2 bytes
  6055 ;; Hardware stack levels used:    1
  6056 ;; Hardware stack levels required when called:    7
  6057 ;; This function calls:
  6058 ;;		_LCD_SendDataByte
  6059 ;; This function is called by:
  6060 ;;		_Door_sensor_function
  6061 ;;		_Weight_sensor_function
  6062 ;;		_User_insert_time_and_start_heating_function
  6063 ;;		_If_heating_is_canceled_function
  6064 ;;		_Heating_process_has_done_function
  6065 ;;		_Welcome_screen_display
  6066 ;;		_Home_screen_display
  6067 ;; This function uses a non-reentrant model
  6068 ;;
  6069                           
  6070                           	psect	text38
  6071  00281E                     __ptext38:
  6072                           	opt callstack 0
  6073  00281E                     _LCD_SendDataString:
  6074                           	opt callstack 22
  6075  00281E                     
  6076                           ;LCD.c: 208: void LCD_SendDataString(uint8 * a_u8data_ptr);LCD.c: 209: {;LCD.c: 211:  wh
      +                          ile(*a_u8data_ptr != '\0')
  6077  00281E  EF25  F014         	goto	l3545
  6078  002822                     l3541:
  6079                           
  6080                           ;LCD.c: 212:  {;LCD.c: 214:   LCD_SendDataByte(*a_u8data_ptr);
  6081  002822  C012  FFF6         	movff	LCD_SendDataString@a_u8data_ptr,tblptrl
  6082  002826  C013  FFF7         	movff	LCD_SendDataString@a_u8data_ptr+1,tblptrh
  6083  00282A  6AF8               	clrf	tblptru,c
  6084  00282C  0E05               	movlw	(high __ramtop+-1)
  6085  00282E  64F7               	cpfsgt	tblptrh,c
  6086  002830  D003               	bra	u2357
  6087  002832  0008               	tblrd		*
  6088  002834  50F5               	movf	tablat,w,c
  6089  002836  D005               	bra	u2350
  6090  002838                     u2357:
  6091  002838  CFF6 FFE9          	movff	tblptrl,fsr0l
  6092  00283C  CFF7 FFEA          	movff	tblptrh,fsr0h
  6093  002840  50EF               	movf	indf0,w,c
  6094  002842                     u2350:
  6095  002842  EC9F  F00B         	call	_LCD_SendDataByte
  6096  002846                     
  6097                           ;LCD.c: 216:   a_u8data_ptr++;
  6098  002846  4A12               	infsnz	LCD_SendDataString@a_u8data_ptr^0,f,c
  6099  002848  2A13               	incf	(LCD_SendDataString@a_u8data_ptr+1)^0,f,c
  6100  00284A                     l3545:
  6101                           
  6102                           ;LCD.c: 211:  while(*a_u8data_ptr != '\0')
  6103  00284A  C012  FFF6         	movff	LCD_SendDataString@a_u8data_ptr,tblptrl
  6104  00284E  C013  FFF7         	movff	LCD_SendDataString@a_u8data_ptr+1,tblptrh
  6105  002852  6AF8               	clrf	tblptru,c
  6106  002854  0E05               	movlw	(high __ramtop+-1)
  6107  002856  64F7               	cpfsgt	tblptrh,c
  6108  002858  D003               	bra	u2367
  6109  00285A  0008               	tblrd		*
  6110  00285C  50F5               	movf	tablat,w,c
  6111  00285E  D005               	bra	u2360
  6112  002860                     u2367:
  6113  002860  CFF6 FFE9          	movff	tblptrl,fsr0l
  6114  002864  CFF7 FFEA          	movff	tblptrh,fsr0h
  6115  002868  50EF               	movf	indf0,w,c
  6116  00286A                     u2360:
  6117  00286A  0900               	iorlw	0
  6118  00286C  A4D8               	btfss	status,2,c
  6119  00286E  EF3B  F014         	goto	u2371
  6120  002872  EF3D  F014         	goto	u2370
  6121  002876                     u2371:
  6122  002876  EF11  F014         	goto	l3541
  6123  00287A                     u2370:
  6124  00287A  0012               	return		;funcret
  6125  00287C                     __end_of_LCD_SendDataString:
  6126                           	opt callstack 0
  6127                           
  6128 ;; *************** function _LCD_ClearScreen *****************
  6129 ;; Defined at:
  6130 ;;		line 372 in file "LCD.c"
  6131 ;; Parameters:    Size  Location     Type
  6132 ;;		None
  6133 ;; Auto vars:     Size  Location     Type
  6134 ;;		None
  6135 ;; Return value:  Size  Location     Type
  6136 ;;                  1    wreg      void 
  6137 ;; Registers used:
  6138 ;;		wreg, status,2, status,0, cstack
  6139 ;; Tracked objects:
  6140 ;;		On entry : 0/0
  6141 ;;		On exit  : 0/0
  6142 ;;		Unchanged: 0/0
  6143 ;; Data sizes:     COMRAM   BANK0   BANK1   BANK2   BANK3   BANK4   BANK5
  6144 ;;      Params:         0       0       0       0       0       0       0
  6145 ;;      Locals:         0       0       0       0       0       0       0
  6146 ;;      Temps:          0       0       0       0       0       0       0
  6147 ;;      Totals:         0       0       0       0       0       0       0
  6148 ;;Total ram usage:        0 bytes
  6149 ;; Hardware stack levels used:    1
  6150 ;; Hardware stack levels required when called:    5
  6151 ;; This function calls:
  6152 ;;		_LCD_SendCommand
  6153 ;; This function is called by:
  6154 ;;		_main
  6155 ;;		_User_insert_time_and_start_heating_function
  6156 ;;		_Heating_process_has_done_function
  6157 ;;		_Reset_to_idle_state
  6158 ;;		_Home_screen_display
  6159 ;; This function uses a non-reentrant model
  6160 ;;
  6161                           
  6162                           	psect	text39
  6163  002A72                     __ptext39:
  6164                           	opt callstack 0
  6165  002A72                     _LCD_ClearScreen:
  6166                           	opt callstack 24
  6167  002A72                     
  6168                           ;LCD.c: 374:     LCD_SendCommand(0x01);
  6169  002A72  0E01               	movlw	1
  6170  002A74  EC43  F00F         	call	_LCD_SendCommand
  6171  002A78                     
  6172                           ;LCD.c: 376:     g_u8position = 0;
  6173  002A78  0E00               	movlw	0
  6174  002A7A  6E49               	movwf	_g_u8position^0,c
  6175  002A7C  0012               	return		;funcret
  6176  002A7E                     __end_of_LCD_ClearScreen:
  6177                           	opt callstack 0
  6178                           
  6179 ;; *************** function _Global_interrupt_disable *****************
  6180 ;; Defined at:
  6181 ;;		line 1283 in file "interrupt.c"
  6182 ;; Parameters:    Size  Location     Type
  6183 ;;		None
  6184 ;; Auto vars:     Size  Location     Type
  6185 ;;		None
  6186 ;; Return value:  Size  Location     Type
  6187 ;;                  1    wreg      void 
  6188 ;; Registers used:
  6189 ;;		status,2, status,0
  6190 ;; Tracked objects:
  6191 ;;		On entry : 0/0
  6192 ;;		On exit  : 0/0
  6193 ;;		Unchanged: 0/0
  6194 ;; Data sizes:     COMRAM   BANK0   BANK1   BANK2   BANK3   BANK4   BANK5
  6195 ;;      Params:         0       0       0       0       0       0       0
  6196 ;;      Locals:         0       0       0       0       0       0       0
  6197 ;;      Temps:          0       0       0       0       0       0       0
  6198 ;;      Totals:         0       0       0       0       0       0       0
  6199 ;;Total ram usage:        0 bytes
  6200 ;; Hardware stack levels used:    1
  6201 ;; Hardware stack levels required when called:    3
  6202 ;; This function calls:
  6203 ;;		Nothing
  6204 ;; This function is called by:
  6205 ;;		_If_heating_is_canceled_function
  6206 ;;		_Heating_process_has_done_function
  6207 ;; This function uses a non-reentrant model
  6208 ;;
  6209                           
  6210                           	psect	text40
  6211  002AB2                     __ptext40:
  6212                           	opt callstack 0
  6213  002AB2                     _Global_interrupt_disable:
  6214                           	opt callstack 26
  6215  002AB2                     
  6216                           ;interrupt.c: 1285:     *(volatile uint8*)0xFF2 &= ~(1 << 7u);
  6217  002AB2  9EF2               	bcf	242,7,c	;volatile
  6218  002AB4  0012               	return		;funcret
  6219  002AB6                     __end_of_Global_interrupt_disable:
  6220                           	opt callstack 0
  6221                           
  6222 ;; *************** function _GPIO_Enable_Pull_Up_On_PortB *****************
  6223 ;; Defined at:
  6224 ;;		line 848 in file "GPIO.c"
  6225 ;; Parameters:    Size  Location     Type
  6226 ;;		None
  6227 ;; Auto vars:     Size  Location     Type
  6228 ;;		None
  6229 ;; Return value:  Size  Location     Type
  6230 ;;                  1    wreg      void 
  6231 ;; Registers used:
  6232 ;;		status,2, status,0
  6233 ;; Tracked objects:
  6234 ;;		On entry : 0/0
  6235 ;;		On exit  : 0/0
  6236 ;;		Unchanged: 0/0
  6237 ;; Data sizes:     COMRAM   BANK0   BANK1   BANK2   BANK3   BANK4   BANK5
  6238 ;;      Params:         0       0       0       0       0       0       0
  6239 ;;      Locals:         0       0       0       0       0       0       0
  6240 ;;      Temps:          0       0       0       0       0       0       0
  6241 ;;      Totals:         0       0       0       0       0       0       0
  6242 ;;Total ram usage:        0 bytes
  6243 ;; Hardware stack levels used:    1
  6244 ;; Hardware stack levels required when called:    3
  6245 ;; This function calls:
  6246 ;;		Nothing
  6247 ;; This function is called by:
  6248 ;;		_main
  6249 ;; This function uses a non-reentrant model
  6250 ;;
  6251                           
  6252                           	psect	text41
  6253  002AB6                     __ptext41:
  6254                           	opt callstack 0
  6255  002AB6                     _GPIO_Enable_Pull_Up_On_PortB:
  6256                           	opt callstack 27
  6257  002AB6                     
  6258                           ;GPIO.c: 850:     *(volatile uint8*)0xFF1 &= ~(1 << 7u);
  6259  002AB6  9EF1               	bcf	241,7,c	;volatile
  6260  002AB8  0012               	return		;funcret
  6261  002ABA                     __end_of_GPIO_Enable_Pull_Up_On_PortB:
  6262                           	opt callstack 0
  6263                           
  6264 ;; *************** function _GPIO_Disable_Comparator_On_PORTA *****************
  6265 ;; Defined at:
  6266 ;;		line 724 in file "GPIO.c"
  6267 ;; Parameters:    Size  Location     Type
  6268 ;;		None
  6269 ;; Auto vars:     Size  Location     Type
  6270 ;;		None
  6271 ;; Return value:  Size  Location     Type
  6272 ;;                  1    wreg      void 
  6273 ;; Registers used:
  6274 ;;		wreg, status,2, status,0
  6275 ;; Tracked objects:
  6276 ;;		On entry : 0/0
  6277 ;;		On exit  : 0/0
  6278 ;;		Unchanged: 0/0
  6279 ;; Data sizes:     COMRAM   BANK0   BANK1   BANK2   BANK3   BANK4   BANK5
  6280 ;;      Params:         0       0       0       0       0       0       0
  6281 ;;      Locals:         0       0       0       0       0       0       0
  6282 ;;      Temps:          0       0       0       0       0       0       0
  6283 ;;      Totals:         0       0       0       0       0       0       0
  6284 ;;Total ram usage:        0 bytes
  6285 ;; Hardware stack levels used:    1
  6286 ;; Hardware stack levels required when called:    3
  6287 ;; This function calls:
  6288 ;;		Nothing
  6289 ;; This function is called by:
  6290 ;;		_main
  6291 ;; This function uses a non-reentrant model
  6292 ;;
  6293                           
  6294                           	psect	text42
  6295  002A90                     __ptext42:
  6296                           	opt callstack 0
  6297  002A90                     _GPIO_Disable_Comparator_On_PORTA:
  6298                           	opt callstack 27
  6299  002A90                     
  6300                           ;GPIO.c: 727:     *(volatile uint8*)0xFB4 |=0x07;
  6301  002A90  0E07               	movlw	7
  6302  002A92  12B4               	iorwf	180,f,c	;volatile
  6303  002A94  0012               	return		;funcret
  6304  002A96                     __end_of_GPIO_Disable_Comparator_On_PORTA:
  6305                           	opt callstack 0
  6306                           
  6307 ;; *************** function _GPIO_Disable_ADC_On_Pins *****************
  6308 ;; Defined at:
  6309 ;;		line 742 in file "GPIO.c"
  6310 ;; Parameters:    Size  Location     Type
  6311 ;;  a_u8port        1    wreg     unsigned char 
  6312 ;;  a_u8pin         1    5[COMRAM] unsigned char 
  6313 ;; Auto vars:     Size  Location     Type
  6314 ;;  a_u8port        1    8[COMRAM] unsigned char 
  6315 ;;  retVal          1    0        enum E10
  6316 ;; Return value:  Size  Location     Type
  6317 ;;                  1    wreg      enum E10
  6318 ;; Registers used:
  6319 ;;		wreg, status,2, status,0
  6320 ;; Tracked objects:
  6321 ;;		On entry : 0/0
  6322 ;;		On exit  : 0/0
  6323 ;;		Unchanged: 0/0
  6324 ;; Data sizes:     COMRAM   BANK0   BANK1   BANK2   BANK3   BANK4   BANK5
  6325 ;;      Params:         1       0       0       0       0       0       0
  6326 ;;      Locals:         2       0       0       0       0       0       0
  6327 ;;      Temps:          2       0       0       0       0       0       0
  6328 ;;      Totals:         5       0       0       0       0       0       0
  6329 ;;Total ram usage:        5 bytes
  6330 ;; Hardware stack levels used:    1
  6331 ;; Hardware stack levels required when called:    3
  6332 ;; This function calls:
  6333 ;;		Nothing
  6334 ;; This function is called by:
  6335 ;;		_main
  6336 ;; This function uses a non-reentrant model
  6337 ;;
  6338                           
  6339                           	psect	text43
  6340  001498                     __ptext43:
  6341                           	opt callstack 0
  6342  001498                     _GPIO_Disable_ADC_On_Pins:
  6343                           	opt callstack 27
  6344                           
  6345                           ;incstack = 0
  6346                           ;GPIO_Disable_ADC_On_Pins@a_u8port stored from wreg
  6347  001498  6E09               	movwf	GPIO_Disable_ADC_On_Pins@a_u8port^0,c
  6348  00149A                     
  6349                           ;GPIO.c: 747:     switch(a_u8port)
  6350  00149A  EFDE  F00A         	goto	l4019
  6351  00149E                     l3945:
  6352                           
  6353                           ;GPIO.c: 754:                     *(volatile uint8*)0xFC1 |= 0x0F;
  6354  00149E  0E0F               	movlw	15
  6355  0014A0  12C1               	iorwf	193,f,c	;volatile
  6356  0014A2                     l3947:
  6357                           
  6358                           ;GPIO.c: 756:                     break;
  6359  0014A2  EFF7  F00A         	goto	l265
  6360  0014A6                     l3949:
  6361                           
  6362                           ;GPIO.c: 758:                     *(volatile uint8*)0xFC1 |= 0x0E;
  6363  0014A6  0E0E               	movlw	14
  6364  0014A8  12C1               	iorwf	193,f,c	;volatile
  6365  0014AA  EF51  F00A         	goto	l3947
  6366  0014AE                     l3953:
  6367                           
  6368                           ;GPIO.c: 762:                     *(volatile uint8*)0xFC1 |= 0x0D;
  6369  0014AE  0E0D               	movlw	13
  6370  0014B0  12C1               	iorwf	193,f,c	;volatile
  6371  0014B2  EF51  F00A         	goto	l3947
  6372  0014B6                     l3957:
  6373                           
  6374                           ;GPIO.c: 766:                     *(volatile uint8*)0xFC1 |= 0x0C;
  6375  0014B6  0E0C               	movlw	12
  6376  0014B8  12C1               	iorwf	193,f,c	;volatile
  6377  0014BA  EF51  F00A         	goto	l3947
  6378  0014BE                     l3961:
  6379                           
  6380                           ;GPIO.c: 770:                     *(volatile uint8*)0xFC1 |= 0x0B;
  6381  0014BE  0E0B               	movlw	11
  6382  0014C0  12C1               	iorwf	193,f,c	;volatile
  6383  0014C2  EF51  F00A         	goto	l3947
  6384  0014C6                     l3965:
  6385                           
  6386                           ;GPIO.c: 776:                     break;
  6387  0014C6  EFF7  F00A         	goto	l265
  6388  0014CA                     l3969:
  6389  0014CA  5006               	movf	GPIO_Disable_ADC_On_Pins@a_u8pin^0,w,c
  6390  0014CC  6E07               	movwf	??_GPIO_Disable_ADC_On_Pins^0,c
  6391  0014CE  6A08               	clrf	(??_GPIO_Disable_ADC_On_Pins+1)^0,c
  6392                           
  6393                           ; Switch on 2 bytes has been partitioned into a top level switch of size 1, and 1 sub-sw
      +                          itches
  6394                           ; Switch size 1, requested type "simple"
  6395                           ; Number of cases is 1, Range of values is 0 to 0
  6396                           ; switch strategies available:
  6397                           ; Name         Instructions Cycles
  6398                           ; simple_byte            4     3 (average)
  6399                           ;	Chosen strategy is simple_byte
  6400  0014D0  5008               	movf	(??_GPIO_Disable_ADC_On_Pins+1)^0,w,c
  6401  0014D2  0A00               	xorlw	0	; case 0
  6402  0014D4  B4D8               	btfsc	status,2,c
  6403  0014D6  EF6F  F00A         	goto	l4611
  6404  0014DA  EF63  F00A         	goto	l3965
  6405  0014DE                     l4611:
  6406                           
  6407                           ; Switch size 1, requested type "simple"
  6408                           ; Number of cases is 5, Range of values is 0 to 5
  6409                           ; switch strategies available:
  6410                           ; Name         Instructions Cycles
  6411                           ; simple_byte           16     9 (average)
  6412                           ;	Chosen strategy is simple_byte
  6413  0014DE  5007               	movf	??_GPIO_Disable_ADC_On_Pins^0,w,c
  6414  0014E0  0A00               	xorlw	0	; case 0
  6415  0014E2  B4D8               	btfsc	status,2,c
  6416  0014E4  EF4F  F00A         	goto	l3945
  6417  0014E8  0A01               	xorlw	1	; case 1
  6418  0014EA  B4D8               	btfsc	status,2,c
  6419  0014EC  EF53  F00A         	goto	l3949
  6420  0014F0  0A03               	xorlw	3	; case 2
  6421  0014F2  B4D8               	btfsc	status,2,c
  6422  0014F4  EF57  F00A         	goto	l3953
  6423  0014F8  0A01               	xorlw	1	; case 3
  6424  0014FA  B4D8               	btfsc	status,2,c
  6425  0014FC  EF5B  F00A         	goto	l3957
  6426  001500  0A06               	xorlw	6	; case 5
  6427  001502  B4D8               	btfsc	status,2,c
  6428  001504  EF5F  F00A         	goto	l3961
  6429  001508  EF63  F00A         	goto	l3965
  6430  00150C                     l3971:
  6431                           
  6432                           ;GPIO.c: 783:                     *(volatile uint8*)0xFC1 |= 0x03;
  6433  00150C  0E03               	movlw	3
  6434  00150E  12C1               	iorwf	193,f,c	;volatile
  6435  001510  EF51  F00A         	goto	l3947
  6436  001514                     l3975:
  6437                           
  6438                           ;GPIO.c: 787:                     *(volatile uint8*)0xFC1 |= 0x05;
  6439  001514  0E05               	movlw	5
  6440  001516  12C1               	iorwf	193,f,c	;volatile
  6441  001518  EF51  F00A         	goto	l3947
  6442  00151C                     l3979:
  6443                           
  6444                           ;GPIO.c: 791:                     *(volatile uint8*)0xFC1 |= 0x07;
  6445  00151C  0E07               	movlw	7
  6446  00151E  12C1               	iorwf	193,f,c	;volatile
  6447  001520  EF51  F00A         	goto	l3947
  6448  001524                     l3983:
  6449                           
  6450                           ;GPIO.c: 795:                     *(volatile uint8*)0xFC1 |= 0x06;
  6451  001524  0E06               	movlw	6
  6452  001526  12C1               	iorwf	193,f,c	;volatile
  6453  001528  EF51  F00A         	goto	l3947
  6454  00152C                     l3987:
  6455                           
  6456                           ;GPIO.c: 799:                     *(volatile uint8*)0xFC1 |= 0x04;
  6457  00152C  84C1               	bsf	193,2,c	;volatile
  6458  00152E  EF51  F00A         	goto	l3947
  6459  001532                     l3995:
  6460  001532  5006               	movf	GPIO_Disable_ADC_On_Pins@a_u8pin^0,w,c
  6461  001534  6E07               	movwf	??_GPIO_Disable_ADC_On_Pins^0,c
  6462  001536  6A08               	clrf	(??_GPIO_Disable_ADC_On_Pins+1)^0,c
  6463                           
  6464                           ; Switch on 2 bytes has been partitioned into a top level switch of size 1, and 1 sub-sw
      +                          itches
  6465                           ; Switch size 1, requested type "simple"
  6466                           ; Number of cases is 1, Range of values is 0 to 0
  6467                           ; switch strategies available:
  6468                           ; Name         Instructions Cycles
  6469                           ; simple_byte            4     3 (average)
  6470                           ;	Chosen strategy is simple_byte
  6471  001538  5008               	movf	(??_GPIO_Disable_ADC_On_Pins+1)^0,w,c
  6472  00153A  0A00               	xorlw	0	; case 0
  6473  00153C  B4D8               	btfsc	status,2,c
  6474  00153E  EFA3  F00A         	goto	l4613
  6475  001542  EF63  F00A         	goto	l3965
  6476  001546                     l4613:
  6477                           
  6478                           ; Switch size 1, requested type "simple"
  6479                           ; Number of cases is 5, Range of values is 0 to 4
  6480                           ; switch strategies available:
  6481                           ; Name         Instructions Cycles
  6482                           ; simple_byte           16     9 (average)
  6483                           ;	Chosen strategy is simple_byte
  6484  001546  5007               	movf	??_GPIO_Disable_ADC_On_Pins^0,w,c
  6485  001548  0A00               	xorlw	0	; case 0
  6486  00154A  B4D8               	btfsc	status,2,c
  6487  00154C  EF86  F00A         	goto	l3971
  6488  001550  0A01               	xorlw	1	; case 1
  6489  001552  B4D8               	btfsc	status,2,c
  6490  001554  EF8A  F00A         	goto	l3975
  6491  001558  0A03               	xorlw	3	; case 2
  6492  00155A  B4D8               	btfsc	status,2,c
  6493  00155C  EF8E  F00A         	goto	l3979
  6494  001560  0A01               	xorlw	1	; case 3
  6495  001562  B4D8               	btfsc	status,2,c
  6496  001564  EF92  F00A         	goto	l3983
  6497  001568  0A07               	xorlw	7	; case 4
  6498  00156A  B4D8               	btfsc	status,2,c
  6499  00156C  EF96  F00A         	goto	l3987
  6500  001570  EF63  F00A         	goto	l3965
  6501  001574                     l3997:
  6502                           
  6503                           ;GPIO.c: 812:                     *(volatile uint8*)0xFC1 |= 0x0A;
  6504  001574  0E0A               	movlw	10
  6505  001576  12C1               	iorwf	193,f,c	;volatile
  6506  001578  EF51  F00A         	goto	l3947
  6507  00157C                     l4001:
  6508                           
  6509                           ;GPIO.c: 816:                     *(volatile uint8*)0xFC1 |= 0x09;
  6510  00157C  0E09               	movlw	9
  6511  00157E  12C1               	iorwf	193,f,c	;volatile
  6512  001580  EF51  F00A         	goto	l3947
  6513  001584                     l4005:
  6514                           
  6515                           ;GPIO.c: 820:                     *(volatile uint8*)0xFC1 |= 0x08;
  6516  001584  86C1               	bsf	193,3,c	;volatile
  6517  001586  EF51  F00A         	goto	l3947
  6518  00158A                     l4013:
  6519  00158A  5006               	movf	GPIO_Disable_ADC_On_Pins@a_u8pin^0,w,c
  6520  00158C  6E07               	movwf	??_GPIO_Disable_ADC_On_Pins^0,c
  6521  00158E  6A08               	clrf	(??_GPIO_Disable_ADC_On_Pins+1)^0,c
  6522                           
  6523                           ; Switch on 2 bytes has been partitioned into a top level switch of size 1, and 1 sub-sw
      +                          itches
  6524                           ; Switch size 1, requested type "simple"
  6525                           ; Number of cases is 1, Range of values is 0 to 0
  6526                           ; switch strategies available:
  6527                           ; Name         Instructions Cycles
  6528                           ; simple_byte            4     3 (average)
  6529                           ;	Chosen strategy is simple_byte
  6530  001590  5008               	movf	(??_GPIO_Disable_ADC_On_Pins+1)^0,w,c
  6531  001592  0A00               	xorlw	0	; case 0
  6532  001594  B4D8               	btfsc	status,2,c
  6533  001596  EFCF  F00A         	goto	l4615
  6534  00159A  EF63  F00A         	goto	l3965
  6535  00159E                     l4615:
  6536                           
  6537                           ; Switch size 1, requested type "simple"
  6538                           ; Number of cases is 3, Range of values is 0 to 2
  6539                           ; switch strategies available:
  6540                           ; Name         Instructions Cycles
  6541                           ; simple_byte           10     6 (average)
  6542                           ;	Chosen strategy is simple_byte
  6543  00159E  5007               	movf	??_GPIO_Disable_ADC_On_Pins^0,w,c
  6544  0015A0  0A00               	xorlw	0	; case 0
  6545  0015A2  B4D8               	btfsc	status,2,c
  6546  0015A4  EFBA  F00A         	goto	l3997
  6547  0015A8  0A01               	xorlw	1	; case 1
  6548  0015AA  B4D8               	btfsc	status,2,c
  6549  0015AC  EFBE  F00A         	goto	l4001
  6550  0015B0  0A03               	xorlw	3	; case 2
  6551  0015B2  B4D8               	btfsc	status,2,c
  6552  0015B4  EFC2  F00A         	goto	l4005
  6553  0015B8  EF63  F00A         	goto	l3965
  6554  0015BC                     l4019:
  6555  0015BC  5009               	movf	GPIO_Disable_ADC_On_Pins@a_u8port^0,w,c
  6556  0015BE  6E07               	movwf	??_GPIO_Disable_ADC_On_Pins^0,c
  6557  0015C0  6A08               	clrf	(??_GPIO_Disable_ADC_On_Pins+1)^0,c
  6558                           
  6559                           ; Switch on 2 bytes has been partitioned into a top level switch of size 1, and 1 sub-sw
      +                          itches
  6560                           ; Switch size 1, requested type "simple"
  6561                           ; Number of cases is 1, Range of values is 0 to 0
  6562                           ; switch strategies available:
  6563                           ; Name         Instructions Cycles
  6564                           ; simple_byte            4     3 (average)
  6565                           ;	Chosen strategy is simple_byte
  6566  0015C2  5008               	movf	(??_GPIO_Disable_ADC_On_Pins+1)^0,w,c
  6567  0015C4  0A00               	xorlw	0	; case 0
  6568  0015C6  B4D8               	btfsc	status,2,c
  6569  0015C8  EFE8  F00A         	goto	l4617
  6570  0015CC  EF63  F00A         	goto	l3965
  6571  0015D0                     l4617:
  6572                           
  6573                           ; Switch size 1, requested type "simple"
  6574                           ; Number of cases is 3, Range of values is 0 to 4
  6575                           ; switch strategies available:
  6576                           ; Name         Instructions Cycles
  6577                           ; simple_byte           10     6 (average)
  6578                           ;	Chosen strategy is simple_byte
  6579  0015D0  5007               	movf	??_GPIO_Disable_ADC_On_Pins^0,w,c
  6580  0015D2  0A00               	xorlw	0	; case 0
  6581  0015D4  B4D8               	btfsc	status,2,c
  6582  0015D6  EF65  F00A         	goto	l3969
  6583  0015DA  0A01               	xorlw	1	; case 1
  6584  0015DC  B4D8               	btfsc	status,2,c
  6585  0015DE  EF99  F00A         	goto	l3995
  6586  0015E2  0A05               	xorlw	5	; case 4
  6587  0015E4  B4D8               	btfsc	status,2,c
  6588  0015E6  EFC5  F00A         	goto	l4013
  6589  0015EA  EF63  F00A         	goto	l3965
  6590  0015EE                     l265:
  6591  0015EE  0012               	return		;funcret
  6592  0015F0                     __end_of_GPIO_Disable_ADC_On_Pins:
  6593                           	opt callstack 0
  6594                           
  6595 ;; *************** function _Display_remind_time *****************
  6596 ;; Defined at:
  6597 ;;		line 80 in file "microwave.c"
  6598 ;; Parameters:    Size  Location     Type
  6599 ;;		None
  6600 ;; Auto vars:     Size  Location     Type
  6601 ;;		None
  6602 ;; Return value:  Size  Location     Type
  6603 ;;                  1    wreg      void 
  6604 ;; Registers used:
  6605 ;;		wreg, status,2, status,0, cstack
  6606 ;; Tracked objects:
  6607 ;;		On entry : 0/0
  6608 ;;		On exit  : 0/0
  6609 ;;		Unchanged: 0/0
  6610 ;; Data sizes:     COMRAM   BANK0   BANK1   BANK2   BANK3   BANK4   BANK5
  6611 ;;      Params:         0       0       0       0       0       0       0
  6612 ;;      Locals:         2       0       0       0       0       0       0
  6613 ;;      Temps:          0       0       0       0       0       0       0
  6614 ;;      Totals:         2       0       0       0       0       0       0
  6615 ;;Total ram usage:        2 bytes
  6616 ;; Hardware stack levels used:    1
  6617 ;; Hardware stack levels required when called:    7
  6618 ;; This function calls:
  6619 ;;		_LCD_SendDataByte
  6620 ;;		_LCD_SetDisplayPosition
  6621 ;;		___lwdiv
  6622 ;;		___lwmod
  6623 ;; This function is called by:
  6624 ;;		_main
  6625 ;; This function uses a non-reentrant model
  6626 ;;
  6627                           
  6628                           	psect	text44
  6629  001DAC                     __ptext44:
  6630                           	opt callstack 0
  6631  001DAC                     _Display_remind_time:
  6632                           	opt callstack 23
  6633  001DAC                     
  6634                           ;microwave.c: 83:     if(g_u8heating_finished_flag == 1)
  6635  001DAC  0447               	decf	_g_u8heating_finished_flag^0,w,c
  6636  001DAE  A4D8               	btfss	status,2,c
  6637  001DB0  EFDC  F00E         	goto	u3061
  6638  001DB4  EFDE  F00E         	goto	u3060
  6639  001DB8                     u3061:
  6640  001DB8  EF42  F00F         	goto	l579
  6641  001DBC                     u3060:
  6642  001DBC                     
  6643                           ;microwave.c: 84:     {;microwave.c: 85:         g_u8heating_finished_flag = 0;
  6644  001DBC  0E00               	movlw	0
  6645  001DBE  6E47               	movwf	_g_u8heating_finished_flag^0,c
  6646  001DC0                     
  6647                           ;microwave.c: 87:         LCD_SetDisplayPosition(11,1);
  6648  001DC0  0E01               	movlw	1
  6649  001DC2  6E0D               	movwf	LCD_SetDisplayPosition@a_u8position_Y^0,c
  6650  001DC4  0E0B               	movlw	11
  6651  001DC6  ECFA  F010         	call	_LCD_SetDisplayPosition
  6652  001DCA                     
  6653                           ;microwave.c: 88:         LCD_SendDataByte((g_u16MicrowaveTime / 600) + 48u);
  6654  001DCA  C040  F014         	movff	_g_u16MicrowaveTime,___lwdiv@dividend
  6655  001DCE  C041  F015         	movff	_g_u16MicrowaveTime+1,___lwdiv@dividend+1
  6656  001DD2  0E02               	movlw	2
  6657  001DD4  6E17               	movwf	(___lwdiv@divisor+1)^0,c
  6658  001DD6  0E58               	movlw	88
  6659  001DD8  6E16               	movwf	___lwdiv@divisor^0,c
  6660  001DDA  ECD0  F012         	call	___lwdiv	;wreg free
  6661  001DDE  5014               	movf	?___lwdiv^0,w,c
  6662  001DE0  0F30               	addlw	48
  6663  001DE2  EC9F  F00B         	call	_LCD_SendDataByte
  6664  001DE6                     
  6665                           ;microwave.c: 89:         LCD_SendDataByte(((g_u16MicrowaveTime / 60) % 10) + 48u);
  6666  001DE6  0E00               	movlw	0
  6667  001DE8  6E17               	movwf	(___lwdiv@divisor+1)^0,c
  6668  001DEA  0E3C               	movlw	60
  6669  001DEC  6E16               	movwf	___lwdiv@divisor^0,c
  6670  001DEE  C040  F014         	movff	_g_u16MicrowaveTime,___lwdiv@dividend
  6671  001DF2  C041  F015         	movff	_g_u16MicrowaveTime+1,___lwdiv@dividend+1
  6672  001DF6  ECD0  F012         	call	___lwdiv	;wreg free
  6673  001DFA  C014  F01B         	movff	?___lwdiv,___lwmod@dividend
  6674  001DFE  C015  F01C         	movff	?___lwdiv+1,___lwmod@dividend+1
  6675  001E02  0E00               	movlw	0
  6676  001E04  6E1E               	movwf	(___lwmod@divisor+1)^0,c
  6677  001E06  0E0A               	movlw	10
  6678  001E08  6E1D               	movwf	___lwmod@divisor^0,c
  6679  001E0A  ECAD  F013         	call	___lwmod	;wreg free
  6680  001E0E  501B               	movf	?___lwmod^0,w,c
  6681  001E10  0F30               	addlw	48
  6682  001E12  EC9F  F00B         	call	_LCD_SendDataByte
  6683  001E16                     
  6684                           ;microwave.c: 90:         LCD_SendDataByte(':');
  6685  001E16  0E3A               	movlw	58
  6686  001E18  EC9F  F00B         	call	_LCD_SendDataByte
  6687  001E1C                     
  6688                           ;microwave.c: 91:         LCD_SendDataByte(((g_u16MicrowaveTime % 60) / 10) + 48u);
  6689  001E1C  0E00               	movlw	0
  6690  001E1E  6E1E               	movwf	(___lwmod@divisor+1)^0,c
  6691  001E20  0E3C               	movlw	60
  6692  001E22  6E1D               	movwf	___lwmod@divisor^0,c
  6693  001E24  C040  F01B         	movff	_g_u16MicrowaveTime,___lwmod@dividend
  6694  001E28  C041  F01C         	movff	_g_u16MicrowaveTime+1,___lwmod@dividend+1
  6695  001E2C  ECAD  F013         	call	___lwmod	;wreg free
  6696  001E30  C01B  F014         	movff	?___lwmod,___lwdiv@dividend
  6697  001E34  C01C  F015         	movff	?___lwmod+1,___lwdiv@dividend+1
  6698  001E38  0E00               	movlw	0
  6699  001E3A  6E17               	movwf	(___lwdiv@divisor+1)^0,c
  6700  001E3C  0E0A               	movlw	10
  6701  001E3E  6E16               	movwf	___lwdiv@divisor^0,c
  6702  001E40  ECD0  F012         	call	___lwdiv	;wreg free
  6703  001E44  5014               	movf	?___lwdiv^0,w,c
  6704  001E46  0F30               	addlw	48
  6705  001E48  EC9F  F00B         	call	_LCD_SendDataByte
  6706  001E4C                     
  6707                           ;microwave.c: 92:         LCD_SendDataByte(((g_u16MicrowaveTime % 60) % 10) + 48u);
  6708  001E4C  0E00               	movlw	0
  6709  001E4E  6E1E               	movwf	(___lwmod@divisor+1)^0,c
  6710  001E50  0E3C               	movlw	60
  6711  001E52  6E1D               	movwf	___lwmod@divisor^0,c
  6712  001E54  C040  F01B         	movff	_g_u16MicrowaveTime,___lwmod@dividend
  6713  001E58  C041  F01C         	movff	_g_u16MicrowaveTime+1,___lwmod@dividend+1
  6714  001E5C  ECAD  F013         	call	___lwmod	;wreg free
  6715  001E60  C01B  F020         	movff	?___lwmod,_Display_remind_time$1547
  6716  001E64  C01C  F021         	movff	?___lwmod+1,_Display_remind_time$1547+1
  6717  001E68                     
  6718                           ;microwave.c: 92:         LCD_SendDataByte(((g_u16MicrowaveTime % 60) % 10) + 48u);
  6719  001E68  C020  F01B         	movff	_Display_remind_time$1547,___lwmod@dividend
  6720  001E6C  C021  F01C         	movff	_Display_remind_time$1547+1,___lwmod@dividend+1
  6721  001E70  0E00               	movlw	0
  6722  001E72  6E1E               	movwf	(___lwmod@divisor+1)^0,c
  6723  001E74  0E0A               	movlw	10
  6724  001E76  6E1D               	movwf	___lwmod@divisor^0,c
  6725  001E78  ECAD  F013         	call	___lwmod	;wreg free
  6726  001E7C  501B               	movf	?___lwmod^0,w,c
  6727  001E7E  0F30               	addlw	48
  6728  001E80  EC9F  F00B         	call	_LCD_SendDataByte
  6729  001E84                     l579:
  6730  001E84  0012               	return		;funcret
  6731  001E86                     __end_of_Display_remind_time:
  6732                           	opt callstack 0
  6733                           
  6734 ;; *************** function ___lwmod *****************
  6735 ;; Defined at:
  6736 ;;		line 7 in file "C:\Program Files (x86)\Microchip\xc8\v2.10\pic\sources\c99\common\lwmod.c"
  6737 ;; Parameters:    Size  Location     Type
  6738 ;;  dividend        2   26[COMRAM] unsigned int 
  6739 ;;  divisor         2   28[COMRAM] unsigned int 
  6740 ;; Auto vars:     Size  Location     Type
  6741 ;;  counter         1   30[COMRAM] unsigned char 
  6742 ;; Return value:  Size  Location     Type
  6743 ;;                  2   26[COMRAM] unsigned int 
  6744 ;; Registers used:
  6745 ;;		wreg, status,2, status,0
  6746 ;; Tracked objects:
  6747 ;;		On entry : 0/0
  6748 ;;		On exit  : 0/0
  6749 ;;		Unchanged: 0/0
  6750 ;; Data sizes:     COMRAM   BANK0   BANK1   BANK2   BANK3   BANK4   BANK5
  6751 ;;      Params:         4       0       0       0       0       0       0
  6752 ;;      Locals:         1       0       0       0       0       0       0
  6753 ;;      Temps:          0       0       0       0       0       0       0
  6754 ;;      Totals:         5       0       0       0       0       0       0
  6755 ;;Total ram usage:        5 bytes
  6756 ;; Hardware stack levels used:    1
  6757 ;; Hardware stack levels required when called:    3
  6758 ;; This function calls:
  6759 ;;		Nothing
  6760 ;; This function is called by:
  6761 ;;		_Display_remind_time
  6762 ;;		_User_insert_time_and_start_heating_function
  6763 ;; This function uses a non-reentrant model
  6764 ;;
  6765                           
  6766                           	psect	text45
  6767  00275A                     __ptext45:
  6768                           	opt callstack 0
  6769  00275A                     ___lwmod:
  6770                           	opt callstack 26
  6771  00275A  501D               	movf	___lwmod@divisor^0,w,c
  6772  00275C  101E               	iorwf	(___lwmod@divisor+1)^0,w,c
  6773  00275E  B4D8               	btfsc	status,2,c
  6774  002760  EFB4  F013         	goto	u2781
  6775  002764  EFB6  F013         	goto	u2780
  6776  002768                     u2781:
  6777  002768  EFDA  F013         	goto	l1271
  6778  00276C                     u2780:
  6779  00276C  0E01               	movlw	1
  6780  00276E  6E1F               	movwf	___lwmod@counter^0,c
  6781  002770  EFBE  F013         	goto	l3869
  6782  002774                     l3867:
  6783  002774  90D8               	bcf	status,0,c
  6784  002776  361D               	rlcf	___lwmod@divisor^0,f,c
  6785  002778  361E               	rlcf	(___lwmod@divisor+1)^0,f,c
  6786  00277A  2A1F               	incf	___lwmod@counter^0,f,c
  6787  00277C                     l3869:
  6788  00277C  AE1E               	btfss	(___lwmod@divisor+1)^0,7,c
  6789  00277E  EFC3  F013         	goto	u2791
  6790  002782  EFC5  F013         	goto	u2790
  6791  002786                     u2791:
  6792  002786  EFBA  F013         	goto	l3867
  6793  00278A                     u2790:
  6794  00278A                     l3871:
  6795  00278A  501D               	movf	___lwmod@divisor^0,w,c
  6796  00278C  5C1B               	subwf	___lwmod@dividend^0,w,c
  6797  00278E  501E               	movf	(___lwmod@divisor+1)^0,w,c
  6798  002790  581C               	subwfb	(___lwmod@dividend+1)^0,w,c
  6799  002792  A0D8               	btfss	status,0,c
  6800  002794  EFCE  F013         	goto	u2801
  6801  002798  EFD0  F013         	goto	u2800
  6802  00279C                     u2801:
  6803  00279C  EFD4  F013         	goto	l3875
  6804  0027A0                     u2800:
  6805  0027A0  501D               	movf	___lwmod@divisor^0,w,c
  6806  0027A2  5E1B               	subwf	___lwmod@dividend^0,f,c
  6807  0027A4  501E               	movf	(___lwmod@divisor+1)^0,w,c
  6808  0027A6  5A1C               	subwfb	(___lwmod@dividend+1)^0,f,c
  6809  0027A8                     l3875:
  6810  0027A8  90D8               	bcf	status,0,c
  6811  0027AA  321E               	rrcf	(___lwmod@divisor+1)^0,f,c
  6812  0027AC  321D               	rrcf	___lwmod@divisor^0,f,c
  6813  0027AE  2E1F               	decfsz	___lwmod@counter^0,f,c
  6814  0027B0  EFC5  F013         	goto	l3871
  6815  0027B4                     l1271:
  6816  0027B4  C01B  F01B         	movff	___lwmod@dividend,?___lwmod
  6817  0027B8  C01C  F01C         	movff	___lwmod@dividend+1,?___lwmod+1
  6818  0027BC  0012               	return		;funcret
  6819  0027BE                     __end_of___lwmod:
  6820                           	opt callstack 0
  6821                           
  6822 ;; *************** function ___lwdiv *****************
  6823 ;; Defined at:
  6824 ;;		line 7 in file "C:\Program Files (x86)\Microchip\xc8\v2.10\pic\sources\c99\common\lwdiv.c"
  6825 ;; Parameters:    Size  Location     Type
  6826 ;;  dividend        2   19[COMRAM] unsigned int 
  6827 ;;  divisor         2   21[COMRAM] unsigned int 
  6828 ;; Auto vars:     Size  Location     Type
  6829 ;;  quotient        2   23[COMRAM] unsigned int 
  6830 ;;  counter         1   25[COMRAM] unsigned char 
  6831 ;; Return value:  Size  Location     Type
  6832 ;;                  2   19[COMRAM] unsigned int 
  6833 ;; Registers used:
  6834 ;;		wreg, status,2, status,0
  6835 ;; Tracked objects:
  6836 ;;		On entry : 0/0
  6837 ;;		On exit  : 0/0
  6838 ;;		Unchanged: 0/0
  6839 ;; Data sizes:     COMRAM   BANK0   BANK1   BANK2   BANK3   BANK4   BANK5
  6840 ;;      Params:         4       0       0       0       0       0       0
  6841 ;;      Locals:         3       0       0       0       0       0       0
  6842 ;;      Temps:          0       0       0       0       0       0       0
  6843 ;;      Totals:         7       0       0       0       0       0       0
  6844 ;;Total ram usage:        7 bytes
  6845 ;; Hardware stack levels used:    1
  6846 ;; Hardware stack levels required when called:    3
  6847 ;; This function calls:
  6848 ;;		Nothing
  6849 ;; This function is called by:
  6850 ;;		_Display_remind_time
  6851 ;;		_Set_and_Display_desired_temp
  6852 ;;		_User_insert_time_and_start_heating_function
  6853 ;; This function uses a non-reentrant model
  6854 ;;
  6855                           
  6856                           	psect	text46
  6857  0025A0                     __ptext46:
  6858                           	opt callstack 0
  6859  0025A0                     ___lwdiv:
  6860                           	opt callstack 26
  6861  0025A0  0E00               	movlw	0
  6862  0025A2  6E19               	movwf	(___lwdiv@quotient+1)^0,c
  6863  0025A4  0E00               	movlw	0
  6864  0025A6  6E18               	movwf	___lwdiv@quotient^0,c
  6865  0025A8  5016               	movf	___lwdiv@divisor^0,w,c
  6866  0025AA  1017               	iorwf	(___lwdiv@divisor+1)^0,w,c
  6867  0025AC  B4D8               	btfsc	status,2,c
  6868  0025AE  EFDB  F012         	goto	u2751
  6869  0025B2  EFDD  F012         	goto	u2750
  6870  0025B6                     u2751:
  6871  0025B6  EF05  F013         	goto	l1261
  6872  0025BA                     u2750:
  6873  0025BA  0E01               	movlw	1
  6874  0025BC  6E1A               	movwf	___lwdiv@counter^0,c
  6875  0025BE  EFE5  F012         	goto	l3849
  6876  0025C2                     l3847:
  6877  0025C2  90D8               	bcf	status,0,c
  6878  0025C4  3616               	rlcf	___lwdiv@divisor^0,f,c
  6879  0025C6  3617               	rlcf	(___lwdiv@divisor+1)^0,f,c
  6880  0025C8  2A1A               	incf	___lwdiv@counter^0,f,c
  6881  0025CA                     l3849:
  6882  0025CA  AE17               	btfss	(___lwdiv@divisor+1)^0,7,c
  6883  0025CC  EFEA  F012         	goto	u2761
  6884  0025D0  EFEC  F012         	goto	u2760
  6885  0025D4                     u2761:
  6886  0025D4  EFE1  F012         	goto	l3847
  6887  0025D8                     u2760:
  6888  0025D8                     l3851:
  6889  0025D8  90D8               	bcf	status,0,c
  6890  0025DA  3618               	rlcf	___lwdiv@quotient^0,f,c
  6891  0025DC  3619               	rlcf	(___lwdiv@quotient+1)^0,f,c
  6892  0025DE  5016               	movf	___lwdiv@divisor^0,w,c
  6893  0025E0  5C14               	subwf	___lwdiv@dividend^0,w,c
  6894  0025E2  5017               	movf	(___lwdiv@divisor+1)^0,w,c
  6895  0025E4  5815               	subwfb	(___lwdiv@dividend+1)^0,w,c
  6896  0025E6  A0D8               	btfss	status,0,c
  6897  0025E8  EFF8  F012         	goto	u2771
  6898  0025EC  EFFA  F012         	goto	u2770
  6899  0025F0                     u2771:
  6900  0025F0  EFFF  F012         	goto	l3859
  6901  0025F4                     u2770:
  6902  0025F4  5016               	movf	___lwdiv@divisor^0,w,c
  6903  0025F6  5E14               	subwf	___lwdiv@dividend^0,f,c
  6904  0025F8  5017               	movf	(___lwdiv@divisor+1)^0,w,c
  6905  0025FA  5A15               	subwfb	(___lwdiv@dividend+1)^0,f,c
  6906  0025FC  8018               	bsf	___lwdiv@quotient^0,0,c
  6907  0025FE                     l3859:
  6908  0025FE  90D8               	bcf	status,0,c
  6909  002600  3217               	rrcf	(___lwdiv@divisor+1)^0,f,c
  6910  002602  3216               	rrcf	___lwdiv@divisor^0,f,c
  6911  002604  2E1A               	decfsz	___lwdiv@counter^0,f,c
  6912  002606  EFEC  F012         	goto	l3851
  6913  00260A                     l1261:
  6914  00260A  C018  F014         	movff	___lwdiv@quotient,?___lwdiv
  6915  00260E  C019  F015         	movff	___lwdiv@quotient+1,?___lwdiv+1
  6916  002612  0012               	return		;funcret
  6917  002614                     __end_of___lwdiv:
  6918                           	opt callstack 0
  6919                           
  6920 ;; *************** function _LCD_SendDataByte *****************
  6921 ;; Defined at:
  6922 ;;		line 128 in file "LCD.c"
  6923 ;; Parameters:    Size  Location     Type
  6924 ;;  a_u8data        1    wreg     unsigned char 
  6925 ;; Auto vars:     Size  Location     Type
  6926 ;;  a_u8data        1   16[COMRAM] unsigned char 
  6927 ;; Return value:  Size  Location     Type
  6928 ;;                  1    wreg      void 
  6929 ;; Registers used:
  6930 ;;		wreg, status,2, status,0, cstack
  6931 ;; Tracked objects:
  6932 ;;		On entry : 0/0
  6933 ;;		On exit  : 0/0
  6934 ;;		Unchanged: 0/0
  6935 ;; Data sizes:     COMRAM   BANK0   BANK1   BANK2   BANK3   BANK4   BANK5
  6936 ;;      Params:         0       0       0       0       0       0       0
  6937 ;;      Locals:         1       0       0       0       0       0       0
  6938 ;;      Temps:          0       0       0       0       0       0       0
  6939 ;;      Totals:         1       0       0       0       0       0       0
  6940 ;;Total ram usage:        1 bytes
  6941 ;; Hardware stack levels used:    1
  6942 ;; Hardware stack levels required when called:    6
  6943 ;; This function calls:
  6944 ;;		_GPIO_WriteOnPin
  6945 ;;		_GPIO_WriteOnPort
  6946 ;;		_LCD_SetDisplayPosition
  6947 ;; This function is called by:
  6948 ;;		_LCD_SendDataString
  6949 ;;		_LCD_DisplaNumber
  6950 ;;		_Display_remind_time
  6951 ;;		_User_insert_time_and_start_heating_function
  6952 ;;		_LCD_SetUserCharacter
  6953 ;; This function uses a non-reentrant model
  6954 ;;
  6955                           
  6956                           	psect	text47
  6957  00173E                     __ptext47:
  6958                           	opt callstack 0
  6959  00173E                     _LCD_SendDataByte:
  6960                           	opt callstack 22
  6961                           
  6962                           ;incstack = 0
  6963                           ;LCD_SendDataByte@a_u8data stored from wreg
  6964  00173E  6E11               	movwf	LCD_SendDataByte@a_u8data^0,c
  6965  001740                     
  6966                           ;LCD.c: 128: void LCD_SendDataByte(uint8 a_u8data);LCD.c: 129: {;LCD.c: 131:     if(g_u8
      +                          position == 16)
  6967  001740  0E10               	movlw	16
  6968  001742  1849               	xorwf	_g_u8position^0,w,c
  6969  001744  A4D8               	btfss	status,2,c
  6970  001746  EFA7  F00B         	goto	u2001
  6971  00174A  EFA9  F00B         	goto	u2000
  6972  00174E                     u2001:
  6973  00174E  EFB0  F00B         	goto	l3305
  6974  001752                     u2000:
  6975  001752                     
  6976                           ;LCD.c: 132:     {;LCD.c: 134:         LCD_SetDisplayPosition(0,2);
  6977  001752  0E02               	movlw	2
  6978  001754  6E0D               	movwf	LCD_SetDisplayPosition@a_u8position_Y^0,c
  6979  001756  0E00               	movlw	0
  6980  001758  ECFA  F010         	call	_LCD_SetDisplayPosition
  6981                           
  6982                           ;LCD.c: 135:     }
  6983  00175C  EFE2  F00B         	goto	l3319
  6984  001760                     l3305:
  6985  001760  0E20               	movlw	32
  6986  001762  1849               	xorwf	_g_u8position^0,w,c
  6987  001764  A4D8               	btfss	status,2,c
  6988  001766  EFB7  F00B         	goto	u2011
  6989  00176A  EFB9  F00B         	goto	u2010
  6990  00176E                     u2011:
  6991  00176E  EFC0  F00B         	goto	l3309
  6992  001772                     u2010:
  6993  001772                     
  6994                           ;LCD.c: 138:     {;LCD.c: 148:         LCD_SetDisplayPosition(0,3);
  6995  001772  0E03               	movlw	3
  6996  001774  6E0D               	movwf	LCD_SetDisplayPosition@a_u8position_Y^0,c
  6997  001776  0E00               	movlw	0
  6998  001778  ECFA  F010         	call	_LCD_SetDisplayPosition
  6999                           
  7000                           ;LCD.c: 150:     }
  7001  00177C  EFE2  F00B         	goto	l3319
  7002  001780                     l3309:
  7003  001780  0E30               	movlw	48
  7004  001782  1849               	xorwf	_g_u8position^0,w,c
  7005  001784  A4D8               	btfss	status,2,c
  7006  001786  EFC7  F00B         	goto	u2021
  7007  00178A  EFC9  F00B         	goto	u2020
  7008  00178E                     u2021:
  7009  00178E  EFD0  F00B         	goto	l3313
  7010  001792                     u2020:
  7011  001792                     
  7012                           ;LCD.c: 155:     {;LCD.c: 157:         LCD_SetDisplayPosition(0,4);
  7013  001792  0E04               	movlw	4
  7014  001794  6E0D               	movwf	LCD_SetDisplayPosition@a_u8position_Y^0,c
  7015  001796  0E00               	movlw	0
  7016  001798  ECFA  F010         	call	_LCD_SetDisplayPosition
  7017                           
  7018                           ;LCD.c: 158:     }
  7019  00179C  EFE2  F00B         	goto	l3319
  7020  0017A0                     l3313:
  7021  0017A0  0E40               	movlw	64
  7022  0017A2  1849               	xorwf	_g_u8position^0,w,c
  7023  0017A4  A4D8               	btfss	status,2,c
  7024  0017A6  EFD7  F00B         	goto	u2031
  7025  0017AA  EFD9  F00B         	goto	u2030
  7026  0017AE                     u2031:
  7027  0017AE  EFE2  F00B         	goto	l392
  7028  0017B2                     u2030:
  7029  0017B2                     
  7030                           ;LCD.c: 161:     {;LCD.c: 163:         g_u8position = 0;
  7031  0017B2  0E00               	movlw	0
  7032  0017B4  6E49               	movwf	_g_u8position^0,c
  7033  0017B6                     
  7034                           ;LCD.c: 165:         LCD_SetDisplayPosition(0,1);
  7035  0017B6  0E01               	movlw	1
  7036  0017B8  6E0D               	movwf	LCD_SetDisplayPosition@a_u8position_Y^0,c
  7037  0017BA  0E00               	movlw	0
  7038  0017BC  ECFA  F010         	call	_LCD_SetDisplayPosition
  7039                           
  7040                           ;LCD.c: 166:     }
  7041  0017C0  EFE2  F00B         	goto	l3319
  7042  0017C4                     l392:
  7043  0017C4                     l3319:
  7044                           
  7045                           ;LCD.c: 173:     GPIO_WriteOnPin(4u , 2u , 1u);
  7046  0017C4  0E02               	movlw	2
  7047  0017C6  6E06               	movwf	GPIO_WriteOnPin@a_u8pin^0,c
  7048  0017C8  0E01               	movlw	1
  7049  0017CA  6E07               	movwf	GPIO_WriteOnPin@a_u8value^0,c
  7050  0017CC  0E04               	movlw	4
  7051  0017CE  EC9A  F006         	call	_GPIO_WriteOnPin
  7052                           
  7053                           ;LCD.c: 174:     GPIO_WriteOnPin(4u , 0u , 0u);
  7054  0017D2  0E00               	movlw	0
  7055  0017D4  6E06               	movwf	GPIO_WriteOnPin@a_u8pin^0,c
  7056  0017D6  0E00               	movlw	0
  7057  0017D8  6E07               	movwf	GPIO_WriteOnPin@a_u8value^0,c
  7058  0017DA  0E04               	movlw	4
  7059  0017DC  EC9A  F006         	call	_GPIO_WriteOnPin
  7060                           
  7061                           ;LCD.c: 175:     GPIO_WriteOnPin(4u , 1u , 1u);
  7062  0017E0  0E01               	movlw	1
  7063  0017E2  6E06               	movwf	GPIO_WriteOnPin@a_u8pin^0,c
  7064  0017E4  0E01               	movlw	1
  7065  0017E6  6E07               	movwf	GPIO_WriteOnPin@a_u8value^0,c
  7066  0017E8  0E04               	movlw	4
  7067  0017EA  EC9A  F006         	call	_GPIO_WriteOnPin
  7068                           
  7069                           ;LCD.c: 176:     GPIO_WriteOnPort(3u , a_u8data);
  7070  0017EE  C011  F006         	movff	LCD_SendDataByte@a_u8data,GPIO_WriteOnPort@a_u8value
  7071  0017F2  0E03               	movlw	3
  7072  0017F4  EC8D  F011         	call	_GPIO_WriteOnPort
  7073                           
  7074                           ;LCD.c: 177:     GPIO_WriteOnPin(4u , 1u , 0u);
  7075  0017F8  0E01               	movlw	1
  7076  0017FA  6E06               	movwf	GPIO_WriteOnPin@a_u8pin^0,c
  7077  0017FC  0E00               	movlw	0
  7078  0017FE  6E07               	movwf	GPIO_WriteOnPin@a_u8value^0,c
  7079  001800  0E04               	movlw	4
  7080  001802  EC9A  F006         	call	_GPIO_WriteOnPin
  7081  001806                     
  7082                           ;LCD.c: 178:  _delay((unsigned long)((5)*(8000000/4000000.0)));
  7083  001806  0E03               	movlw	3
  7084  001808                     u3277:
  7085  001808  2EE8               	decfsz	wreg,f,c
  7086  00180A  D7FE               	bra	u3277
  7087  00180C  F000               	nop	
  7088  00180E                     
  7089                           ;LCD.c: 179:     GPIO_WriteOnPin(4u , 1u , 1u);
  7090  00180E  0E01               	movlw	1
  7091  001810  6E06               	movwf	GPIO_WriteOnPin@a_u8pin^0,c
  7092  001812  0E01               	movlw	1
  7093  001814  6E07               	movwf	GPIO_WriteOnPin@a_u8value^0,c
  7094  001816  0E04               	movlw	4
  7095  001818  EC9A  F006         	call	_GPIO_WriteOnPin
  7096                           
  7097                           ;LCD.c: 180:  _delay((unsigned long)((10)*(8000000/4000000.0)));
  7098  00181C  0E06               	movlw	6
  7099  00181E                     u3287:
  7100  00181E  2EE8               	decfsz	wreg,f,c
  7101  001820  D7FE               	bra	u3287
  7102  001822  D000               	nop2	
  7103  001824                     
  7104                           ;LCD.c: 184:     GPIO_WriteOnPin(4u , 2u , 1u);
  7105  001824  0E02               	movlw	2
  7106  001826  6E06               	movwf	GPIO_WriteOnPin@a_u8pin^0,c
  7107  001828  0E01               	movlw	1
  7108  00182A  6E07               	movwf	GPIO_WriteOnPin@a_u8value^0,c
  7109  00182C  0E04               	movlw	4
  7110  00182E  EC9A  F006         	call	_GPIO_WriteOnPin
  7111  001832                     
  7112                           ;LCD.c: 185:     GPIO_WriteOnPin(4u , 0u , 0u);
  7113  001832  0E00               	movlw	0
  7114  001834  6E06               	movwf	GPIO_WriteOnPin@a_u8pin^0,c
  7115  001836  0E00               	movlw	0
  7116  001838  6E07               	movwf	GPIO_WriteOnPin@a_u8value^0,c
  7117  00183A  0E04               	movlw	4
  7118  00183C  EC9A  F006         	call	_GPIO_WriteOnPin
  7119  001840                     
  7120                           ;LCD.c: 186:     GPIO_WriteOnPin(4u , 1u , 1u);
  7121  001840  0E01               	movlw	1
  7122  001842  6E06               	movwf	GPIO_WriteOnPin@a_u8pin^0,c
  7123  001844  0E01               	movlw	1
  7124  001846  6E07               	movwf	GPIO_WriteOnPin@a_u8value^0,c
  7125  001848  0E04               	movlw	4
  7126  00184A  EC9A  F006         	call	_GPIO_WriteOnPin
  7127  00184E                     
  7128                           ;LCD.c: 187:     GPIO_WriteOnPort(3u , a_u8data << 4);
  7129  00184E  3811               	swapf	LCD_SendDataByte@a_u8data^0,w,c
  7130  001850  0BF0               	andlw	240
  7131  001852  6E06               	movwf	GPIO_WriteOnPort@a_u8value^0,c
  7132  001854  0E03               	movlw	3
  7133  001856  EC8D  F011         	call	_GPIO_WriteOnPort
  7134  00185A                     
  7135                           ;LCD.c: 188:     GPIO_WriteOnPin(4u , 1u , 0u);
  7136  00185A  0E01               	movlw	1
  7137  00185C  6E06               	movwf	GPIO_WriteOnPin@a_u8pin^0,c
  7138  00185E  0E00               	movlw	0
  7139  001860  6E07               	movwf	GPIO_WriteOnPin@a_u8value^0,c
  7140  001862  0E04               	movlw	4
  7141  001864  EC9A  F006         	call	_GPIO_WriteOnPin
  7142  001868                     
  7143                           ;LCD.c: 189:  _delay((unsigned long)((5)*(8000000/4000000.0)));
  7144  001868  0E03               	movlw	3
  7145  00186A                     u3297:
  7146  00186A  2EE8               	decfsz	wreg,f,c
  7147  00186C  D7FE               	bra	u3297
  7148  00186E  F000               	nop	
  7149                           
  7150                           ;LCD.c: 190:     GPIO_WriteOnPin(4u , 1u , 1u);
  7151  001870  0E01               	movlw	1
  7152  001872  6E06               	movwf	GPIO_WriteOnPin@a_u8pin^0,c
  7153  001874  0E01               	movlw	1
  7154  001876  6E07               	movwf	GPIO_WriteOnPin@a_u8value^0,c
  7155  001878  0E04               	movlw	4
  7156  00187A  EC9A  F006         	call	_GPIO_WriteOnPin
  7157  00187E                     
  7158                           ;LCD.c: 191:  _delay((unsigned long)((10)*(8000000/4000000.0)));
  7159  00187E  0E06               	movlw	6
  7160  001880                     u3307:
  7161  001880  2EE8               	decfsz	wreg,f,c
  7162  001882  D7FE               	bra	u3307
  7163  001884  D000               	nop2	
  7164  001886                     
  7165                           ;LCD.c: 194:     g_u8position++;
  7166  001886  2A49               	incf	_g_u8position^0,f,c
  7167  001888  0012               	return		;funcret
  7168  00188A                     __end_of_LCD_SendDataByte:
  7169                           	opt callstack 0
  7170                           
  7171 ;; *************** function _LCD_SetDisplayPosition *****************
  7172 ;; Defined at:
  7173 ;;		line 232 in file "LCD.c"
  7174 ;; Parameters:    Size  Location     Type
  7175 ;;  a_u8position    1    wreg     unsigned char 
  7176 ;;  a_u8position    1   12[COMRAM] unsigned char 
  7177 ;; Auto vars:     Size  Location     Type
  7178 ;;  a_u8position    1   15[COMRAM] unsigned char 
  7179 ;; Return value:  Size  Location     Type
  7180 ;;                  1    wreg      void 
  7181 ;; Registers used:
  7182 ;;		wreg, status,2, status,0, cstack
  7183 ;; Tracked objects:
  7184 ;;		On entry : 0/0
  7185 ;;		On exit  : 0/0
  7186 ;;		Unchanged: 0/0
  7187 ;; Data sizes:     COMRAM   BANK0   BANK1   BANK2   BANK3   BANK4   BANK5
  7188 ;;      Params:         1       0       0       0       0       0       0
  7189 ;;      Locals:         1       0       0       0       0       0       0
  7190 ;;      Temps:          2       0       0       0       0       0       0
  7191 ;;      Totals:         4       0       0       0       0       0       0
  7192 ;;Total ram usage:        4 bytes
  7193 ;; Hardware stack levels used:    1
  7194 ;; Hardware stack levels required when called:    5
  7195 ;; This function calls:
  7196 ;;		_LCD_SendCommand
  7197 ;; This function is called by:
  7198 ;;		_LCD_SendDataByte
  7199 ;;		_Display_remind_time
  7200 ;;		_Set_and_Display_desired_temp
  7201 ;;		_Door_sensor_function
  7202 ;;		_Weight_sensor_function
  7203 ;;		_User_insert_time_and_start_heating_function
  7204 ;;		_If_heating_is_canceled_function
  7205 ;;		_Heating_process_has_done_function
  7206 ;;		_Welcome_screen_display
  7207 ;;		_Home_screen_display
  7208 ;;		_LCD_SetUserCharacter
  7209 ;; This function uses a non-reentrant model
  7210 ;;
  7211                           
  7212                           	psect	text48
  7213  0021F4                     __ptext48:
  7214                           	opt callstack 0
  7215  0021F4                     _LCD_SetDisplayPosition:
  7216                           	opt callstack 24
  7217                           
  7218                           ;incstack = 0
  7219                           ;LCD_SetDisplayPosition@a_u8position_X stored from wreg
  7220  0021F4  6E10               	movwf	LCD_SetDisplayPosition@a_u8position_X^0,c
  7221  0021F6                     
  7222                           ;LCD.c: 232: void LCD_SetDisplayPosition(uint8 a_u8position_X , uint8 a_u8position_Y);LC
      +                          D.c: 233: {;LCD.c: 235:  if((a_u8position_X >= 0)&&(a_u8position_X < 16))
  7223  0021F6  0E10               	movlw	16
  7224  0021F8  6010               	cpfslt	LCD_SetDisplayPosition@a_u8position_X^0,c
  7225  0021FA  EF01  F011         	goto	u1991
  7226  0021FE  EF03  F011         	goto	u1990
  7227  002202                     u1991:
  7228  002202  EF45  F011         	goto	l414
  7229  002206                     u1990:
  7230  002206  EF28  F011         	goto	l3295
  7231  00220A                     l3277:
  7232                           
  7233                           ;LCD.c: 241:    LCD_SendCommand(a_u8position_X + 0x80);
  7234  00220A  5010               	movf	LCD_SetDisplayPosition@a_u8position_X^0,w,c
  7235  00220C  0F80               	addlw	128
  7236  00220E  EC43  F00F         	call	_LCD_SendCommand
  7237  002212                     
  7238                           ;LCD.c: 243:             g_u8position = a_u8position_X;
  7239  002212  C010  F049         	movff	LCD_SetDisplayPosition@a_u8position_X,_g_u8position
  7240                           
  7241                           ;LCD.c: 244:    break;
  7242  002216  EF45  F011         	goto	l414
  7243  00221A                     l3281:
  7244                           
  7245                           ;LCD.c: 246:    LCD_SendCommand(a_u8position_X + 0xC0);
  7246  00221A  5010               	movf	LCD_SetDisplayPosition@a_u8position_X^0,w,c
  7247  00221C  0FC0               	addlw	192
  7248  00221E  EC43  F00F         	call	_LCD_SendCommand
  7249  002222                     
  7250                           ;LCD.c: 248:             g_u8position = 16 + a_u8position_X;
  7251  002222  5010               	movf	LCD_SetDisplayPosition@a_u8position_X^0,w,c
  7252  002224  0F10               	addlw	16
  7253  002226  6E49               	movwf	_g_u8position^0,c
  7254                           
  7255                           ;LCD.c: 249:    break;
  7256  002228  EF45  F011         	goto	l414
  7257  00222C                     l3285:
  7258                           
  7259                           ;LCD.c: 253:    LCD_SendCommand(a_u8position_X + 0x90);
  7260  00222C  5010               	movf	LCD_SetDisplayPosition@a_u8position_X^0,w,c
  7261  00222E  0F90               	addlw	144
  7262  002230  EC43  F00F         	call	_LCD_SendCommand
  7263  002234                     
  7264                           ;LCD.c: 255:             g_u8position = 32 + a_u8position_X;
  7265  002234  5010               	movf	LCD_SetDisplayPosition@a_u8position_X^0,w,c
  7266  002236  0F20               	addlw	32
  7267  002238  6E49               	movwf	_g_u8position^0,c
  7268                           
  7269                           ;LCD.c: 256:    break;
  7270  00223A  EF45  F011         	goto	l414
  7271  00223E                     l3289:
  7272                           
  7273                           ;LCD.c: 258:    LCD_SendCommand(a_u8position_X + 0xD0);
  7274  00223E  5010               	movf	LCD_SetDisplayPosition@a_u8position_X^0,w,c
  7275  002240  0FD0               	addlw	208
  7276  002242  EC43  F00F         	call	_LCD_SendCommand
  7277  002246                     
  7278                           ;LCD.c: 260:             g_u8position = 48 + a_u8position_X;
  7279  002246  5010               	movf	LCD_SetDisplayPosition@a_u8position_X^0,w,c
  7280  002248  0F30               	addlw	48
  7281  00224A  6E49               	movwf	_g_u8position^0,c
  7282                           
  7283                           ;LCD.c: 261:    break;
  7284  00224C  EF45  F011         	goto	l414
  7285  002250                     l3295:
  7286  002250  500D               	movf	LCD_SetDisplayPosition@a_u8position_Y^0,w,c
  7287  002252  6E0E               	movwf	??_LCD_SetDisplayPosition^0,c
  7288  002254  6A0F               	clrf	(??_LCD_SetDisplayPosition+1)^0,c
  7289                           
  7290                           ; Switch on 2 bytes has been partitioned into a top level switch of size 1, and 1 sub-sw
      +                          itches
  7291                           ; Switch size 1, requested type "simple"
  7292                           ; Number of cases is 1, Range of values is 0 to 0
  7293                           ; switch strategies available:
  7294                           ; Name         Instructions Cycles
  7295                           ; simple_byte            4     3 (average)
  7296                           ;	Chosen strategy is simple_byte
  7297  002256  500F               	movf	(??_LCD_SetDisplayPosition+1)^0,w,c
  7298  002258  0A00               	xorlw	0	; case 0
  7299  00225A  B4D8               	btfsc	status,2,c
  7300  00225C  EF32  F011         	goto	l4619
  7301  002260  EF45  F011         	goto	l414
  7302  002264                     l4619:
  7303                           
  7304                           ; Switch size 1, requested type "simple"
  7305                           ; Number of cases is 4, Range of values is 1 to 4
  7306                           ; switch strategies available:
  7307                           ; Name         Instructions Cycles
  7308                           ; simple_byte           13     7 (average)
  7309                           ;	Chosen strategy is simple_byte
  7310  002264  500E               	movf	??_LCD_SetDisplayPosition^0,w,c
  7311  002266  0A01               	xorlw	1	; case 1
  7312  002268  B4D8               	btfsc	status,2,c
  7313  00226A  EF05  F011         	goto	l3277
  7314  00226E  0A03               	xorlw	3	; case 2
  7315  002270  B4D8               	btfsc	status,2,c
  7316  002272  EF0D  F011         	goto	l3281
  7317  002276  0A01               	xorlw	1	; case 3
  7318  002278  B4D8               	btfsc	status,2,c
  7319  00227A  EF16  F011         	goto	l3285
  7320  00227E  0A07               	xorlw	7	; case 4
  7321  002280  B4D8               	btfsc	status,2,c
  7322  002282  EF1F  F011         	goto	l3289
  7323  002286  EF45  F011         	goto	l414
  7324  00228A                     l414:
  7325  00228A  0012               	return		;funcret
  7326  00228C                     __end_of_LCD_SetDisplayPosition:
  7327                           	opt callstack 0
  7328                           
  7329 ;; *************** function _LCD_SendCommand *****************
  7330 ;; Defined at:
  7331 ;;		line 92 in file "LCD.c"
  7332 ;; Parameters:    Size  Location     Type
  7333 ;;  a_u8command     1    wreg     unsigned char 
  7334 ;; Auto vars:     Size  Location     Type
  7335 ;;  a_u8command     1   11[COMRAM] unsigned char 
  7336 ;; Return value:  Size  Location     Type
  7337 ;;                  1    wreg      void 
  7338 ;; Registers used:
  7339 ;;		wreg, status,2, status,0, cstack
  7340 ;; Tracked objects:
  7341 ;;		On entry : 0/0
  7342 ;;		On exit  : 0/0
  7343 ;;		Unchanged: 0/0
  7344 ;; Data sizes:     COMRAM   BANK0   BANK1   BANK2   BANK3   BANK4   BANK5
  7345 ;;      Params:         0       0       0       0       0       0       0
  7346 ;;      Locals:         1       0       0       0       0       0       0
  7347 ;;      Temps:          0       0       0       0       0       0       0
  7348 ;;      Totals:         1       0       0       0       0       0       0
  7349 ;;Total ram usage:        1 bytes
  7350 ;; Hardware stack levels used:    1
  7351 ;; Hardware stack levels required when called:    4
  7352 ;; This function calls:
  7353 ;;		_GPIO_WriteOnPin
  7354 ;;		_GPIO_WriteOnPort
  7355 ;; This function is called by:
  7356 ;;		_LCD_Initialization
  7357 ;;		_LCD_SetDisplayPosition
  7358 ;;		_LCD_ClearScreen
  7359 ;;		_LCD_SetUserCharacter
  7360 ;; This function uses a non-reentrant model
  7361 ;;
  7362                           
  7363                           	psect	text49
  7364  001E86                     __ptext49:
  7365                           	opt callstack 0
  7366  001E86                     _LCD_SendCommand:
  7367                           	opt callstack 24
  7368                           
  7369                           ;incstack = 0
  7370                           ;LCD_SendCommand@a_u8command stored from wreg
  7371  001E86  6E0C               	movwf	LCD_SendCommand@a_u8command^0,c
  7372  001E88                     
  7373                           ;LCD.c: 92: void LCD_SendCommand(uint8 a_u8command);LCD.c: 93: {;LCD.c: 95:     GPIO_Wri
      +                          teOnPin(4u , 2u , 0u);
  7374  001E88  0E02               	movlw	2
  7375  001E8A  6E06               	movwf	GPIO_WriteOnPin@a_u8pin^0,c
  7376  001E8C  0E00               	movlw	0
  7377  001E8E  6E07               	movwf	GPIO_WriteOnPin@a_u8value^0,c
  7378  001E90  0E04               	movlw	4
  7379  001E92  EC9A  F006         	call	_GPIO_WriteOnPin
  7380                           
  7381                           ;LCD.c: 96:     GPIO_WriteOnPin(4u , 0u , 0u);
  7382  001E96  0E00               	movlw	0
  7383  001E98  6E06               	movwf	GPIO_WriteOnPin@a_u8pin^0,c
  7384  001E9A  0E00               	movlw	0
  7385  001E9C  6E07               	movwf	GPIO_WriteOnPin@a_u8value^0,c
  7386  001E9E  0E04               	movlw	4
  7387  001EA0  EC9A  F006         	call	_GPIO_WriteOnPin
  7388                           
  7389                           ;LCD.c: 97:     GPIO_WriteOnPin(4u , 1u , 1u);
  7390  001EA4  0E01               	movlw	1
  7391  001EA6  6E06               	movwf	GPIO_WriteOnPin@a_u8pin^0,c
  7392  001EA8  0E01               	movlw	1
  7393  001EAA  6E07               	movwf	GPIO_WriteOnPin@a_u8value^0,c
  7394  001EAC  0E04               	movlw	4
  7395  001EAE  EC9A  F006         	call	_GPIO_WriteOnPin
  7396                           
  7397                           ;LCD.c: 98:     GPIO_WriteOnPort(3u , a_u8command);
  7398  001EB2  C00C  F006         	movff	LCD_SendCommand@a_u8command,GPIO_WriteOnPort@a_u8value
  7399  001EB6  0E03               	movlw	3
  7400  001EB8  EC8D  F011         	call	_GPIO_WriteOnPort
  7401                           
  7402                           ;LCD.c: 99:     GPIO_WriteOnPin(4u , 1u , 0u);
  7403  001EBC  0E01               	movlw	1
  7404  001EBE  6E06               	movwf	GPIO_WriteOnPin@a_u8pin^0,c
  7405  001EC0  0E00               	movlw	0
  7406  001EC2  6E07               	movwf	GPIO_WriteOnPin@a_u8value^0,c
  7407  001EC4  0E04               	movlw	4
  7408  001EC6  EC9A  F006         	call	_GPIO_WriteOnPin
  7409  001ECA                     
  7410                           ;LCD.c: 100:  _delay((unsigned long)((5)*(8000000/4000000.0)));
  7411  001ECA  0E03               	movlw	3
  7412  001ECC                     u3317:
  7413  001ECC  2EE8               	decfsz	wreg,f,c
  7414  001ECE  D7FE               	bra	u3317
  7415  001ED0  F000               	nop	
  7416  001ED2                     
  7417                           ;LCD.c: 101:     GPIO_WriteOnPin(4u , 1u , 1u);
  7418  001ED2  0E01               	movlw	1
  7419  001ED4  6E06               	movwf	GPIO_WriteOnPin@a_u8pin^0,c
  7420  001ED6  0E01               	movlw	1
  7421  001ED8  6E07               	movwf	GPIO_WriteOnPin@a_u8value^0,c
  7422  001EDA  0E04               	movlw	4
  7423  001EDC  EC9A  F006         	call	_GPIO_WriteOnPin
  7424                           
  7425                           ;LCD.c: 102:  _delay((unsigned long)((10)*(8000000/4000000.0)));
  7426  001EE0  0E06               	movlw	6
  7427  001EE2                     u3327:
  7428  001EE2  2EE8               	decfsz	wreg,f,c
  7429  001EE4  D7FE               	bra	u3327
  7430  001EE6  D000               	nop2	
  7431  001EE8                     
  7432                           ;LCD.c: 106:     GPIO_WriteOnPin(4u , 2u , 0u);
  7433  001EE8  0E02               	movlw	2
  7434  001EEA  6E06               	movwf	GPIO_WriteOnPin@a_u8pin^0,c
  7435  001EEC  0E00               	movlw	0
  7436  001EEE  6E07               	movwf	GPIO_WriteOnPin@a_u8value^0,c
  7437  001EF0  0E04               	movlw	4
  7438  001EF2  EC9A  F006         	call	_GPIO_WriteOnPin
  7439  001EF6                     
  7440                           ;LCD.c: 107:     GPIO_WriteOnPin(4u , 0u , 0u);
  7441  001EF6  0E00               	movlw	0
  7442  001EF8  6E06               	movwf	GPIO_WriteOnPin@a_u8pin^0,c
  7443  001EFA  0E00               	movlw	0
  7444  001EFC  6E07               	movwf	GPIO_WriteOnPin@a_u8value^0,c
  7445  001EFE  0E04               	movlw	4
  7446  001F00  EC9A  F006         	call	_GPIO_WriteOnPin
  7447  001F04                     
  7448                           ;LCD.c: 108:     GPIO_WriteOnPin(4u , 1u , 1u);
  7449  001F04  0E01               	movlw	1
  7450  001F06  6E06               	movwf	GPIO_WriteOnPin@a_u8pin^0,c
  7451  001F08  0E01               	movlw	1
  7452  001F0A  6E07               	movwf	GPIO_WriteOnPin@a_u8value^0,c
  7453  001F0C  0E04               	movlw	4
  7454  001F0E  EC9A  F006         	call	_GPIO_WriteOnPin
  7455  001F12                     
  7456                           ;LCD.c: 109:     GPIO_WriteOnPort(3u , a_u8command << 4);
  7457  001F12  380C               	swapf	LCD_SendCommand@a_u8command^0,w,c
  7458  001F14  0BF0               	andlw	240
  7459  001F16  6E06               	movwf	GPIO_WriteOnPort@a_u8value^0,c
  7460  001F18  0E03               	movlw	3
  7461  001F1A  EC8D  F011         	call	_GPIO_WriteOnPort
  7462  001F1E                     
  7463                           ;LCD.c: 110:     GPIO_WriteOnPin(4u , 1u , 0u);
  7464  001F1E  0E01               	movlw	1
  7465  001F20  6E06               	movwf	GPIO_WriteOnPin@a_u8pin^0,c
  7466  001F22  0E00               	movlw	0
  7467  001F24  6E07               	movwf	GPIO_WriteOnPin@a_u8value^0,c
  7468  001F26  0E04               	movlw	4
  7469  001F28  EC9A  F006         	call	_GPIO_WriteOnPin
  7470  001F2C                     
  7471                           ;LCD.c: 111:  _delay((unsigned long)((5)*(8000000/4000000.0)));
  7472  001F2C  0E03               	movlw	3
  7473  001F2E                     u3337:
  7474  001F2E  2EE8               	decfsz	wreg,f,c
  7475  001F30  D7FE               	bra	u3337
  7476  001F32  F000               	nop	
  7477                           
  7478                           ;LCD.c: 112:     GPIO_WriteOnPin(4u , 1u , 1u);
  7479  001F34  0E01               	movlw	1
  7480  001F36  6E06               	movwf	GPIO_WriteOnPin@a_u8pin^0,c
  7481  001F38  0E01               	movlw	1
  7482  001F3A  6E07               	movwf	GPIO_WriteOnPin@a_u8value^0,c
  7483  001F3C  0E04               	movlw	4
  7484  001F3E  EC9A  F006         	call	_GPIO_WriteOnPin
  7485  001F42                     
  7486                           ;LCD.c: 113:  _delay((unsigned long)((10)*(8000000/4000000.0)));
  7487  001F42  0E06               	movlw	6
  7488  001F44                     u3347:
  7489  001F44  2EE8               	decfsz	wreg,f,c
  7490  001F46  D7FE               	bra	u3347
  7491  001F48  D000               	nop2	
  7492  001F4A  0012               	return		;funcret
  7493  001F4C                     __end_of_LCD_SendCommand:
  7494                           	opt callstack 0
  7495                           
  7496 ;; *************** function _GPIO_WriteOnPort *****************
  7497 ;; Defined at:
  7498 ;;		line 463 in file "GPIO.c"
  7499 ;; Parameters:    Size  Location     Type
  7500 ;;  a_u8port        1    wreg     unsigned char 
  7501 ;;  a_u8value       1    5[COMRAM] unsigned char 
  7502 ;; Auto vars:     Size  Location     Type
  7503 ;;  a_u8port        1    9[COMRAM] unsigned char 
  7504 ;;  retVal          1    0        enum E10
  7505 ;; Return value:  Size  Location     Type
  7506 ;;                  1    wreg      enum E10
  7507 ;; Registers used:
  7508 ;;		wreg, status,2, status,0
  7509 ;; Tracked objects:
  7510 ;;		On entry : 0/0
  7511 ;;		On exit  : 0/0
  7512 ;;		Unchanged: 0/0
  7513 ;; Data sizes:     COMRAM   BANK0   BANK1   BANK2   BANK3   BANK4   BANK5
  7514 ;;      Params:         1       0       0       0       0       0       0
  7515 ;;      Locals:         2       0       0       0       0       0       0
  7516 ;;      Temps:          2       0       0       0       0       0       0
  7517 ;;      Totals:         5       0       0       0       0       0       0
  7518 ;;Total ram usage:        5 bytes
  7519 ;; Hardware stack levels used:    1
  7520 ;; Hardware stack levels required when called:    3
  7521 ;; This function calls:
  7522 ;;		Nothing
  7523 ;; This function is called by:
  7524 ;;		_LCD_Initialization
  7525 ;;		_LCD_SendCommand
  7526 ;;		_LCD_SendDataByte
  7527 ;; This function uses a non-reentrant model
  7528 ;;
  7529                           
  7530                           	psect	text50
  7531  00231A                     __ptext50:
  7532                           	opt callstack 0
  7533  00231A                     _GPIO_WriteOnPort:
  7534                           	opt callstack 24
  7535                           
  7536                           ;incstack = 0
  7537                           ;GPIO_WriteOnPort@a_u8port stored from wreg
  7538  00231A  6E0A               	movwf	GPIO_WriteOnPort@a_u8port^0,c
  7539  00231C                     
  7540                           ;GPIO.c: 468:     switch(a_u8port)
  7541  00231C  EFB1  F011         	goto	l3247
  7542  002320                     l3225:
  7543                           
  7544                           ;GPIO.c: 471:             *(volatile uint8*)0xF89 &= 0x00;
  7545  002320  0E00               	movlw	0
  7546  002322  6E89               	movwf	137,c	;volatile
  7547  002324                     
  7548                           ;GPIO.c: 472:             *(volatile uint8*)0xF89 |= a_u8value;
  7549  002324  5006               	movf	GPIO_WriteOnPort@a_u8value^0,w,c
  7550  002326  1289               	iorwf	137,f,c	;volatile
  7551                           
  7552                           ;GPIO.c: 473:             break;
  7553  002328  EFD2  F011         	goto	l177
  7554  00232C                     l3229:
  7555                           
  7556                           ;GPIO.c: 475:             *(volatile uint8*)0xF8A &= 0x00;
  7557  00232C  0E00               	movlw	0
  7558  00232E  6E8A               	movwf	138,c	;volatile
  7559  002330                     
  7560                           ;GPIO.c: 476:             *(volatile uint8*)0xF8A |= a_u8value;
  7561  002330  5006               	movf	GPIO_WriteOnPort@a_u8value^0,w,c
  7562  002332  128A               	iorwf	138,f,c	;volatile
  7563                           
  7564                           ;GPIO.c: 477:             break;
  7565  002334  EFD2  F011         	goto	l177
  7566  002338                     l3233:
  7567                           
  7568                           ;GPIO.c: 479:             *(volatile uint8*)0xF8B &= 0x00;
  7569  002338  0E00               	movlw	0
  7570  00233A  6E8B               	movwf	139,c	;volatile
  7571  00233C                     
  7572                           ;GPIO.c: 480:             *(volatile uint8*)0xF8B |= a_u8value;
  7573  00233C  5006               	movf	GPIO_WriteOnPort@a_u8value^0,w,c
  7574  00233E  128B               	iorwf	139,f,c	;volatile
  7575                           
  7576                           ;GPIO.c: 481:             break;
  7577  002340  EFD2  F011         	goto	l177
  7578  002344                     l3237:
  7579                           
  7580                           ;GPIO.c: 483:             *(volatile uint8*)0xF8C &= 0x00;
  7581  002344  0E00               	movlw	0
  7582  002346  6E8C               	movwf	140,c	;volatile
  7583  002348                     
  7584                           ;GPIO.c: 484:             *(volatile uint8*)0xF8C |= a_u8value;
  7585  002348  5006               	movf	GPIO_WriteOnPort@a_u8value^0,w,c
  7586  00234A  128C               	iorwf	140,f,c	;volatile
  7587                           
  7588                           ;GPIO.c: 485:             break;
  7589  00234C  EFD2  F011         	goto	l177
  7590  002350                     l3241:
  7591                           
  7592                           ;GPIO.c: 487:             *(volatile uint8*)0xF8D &= 0xF8;
  7593  002350  0EF8               	movlw	248
  7594  002352  168D               	andwf	141,f,c	;volatile
  7595                           
  7596                           ;GPIO.c: 488:             *(volatile uint8*)0xF8D |= (a_u8value & 0x07);
  7597  002354  5006               	movf	GPIO_WriteOnPort@a_u8value^0,w,c
  7598  002356  0B07               	andlw	7
  7599  002358  128D               	iorwf	141,f,c	;volatile
  7600                           
  7601                           ;GPIO.c: 489:             break;
  7602  00235A  EFD2  F011         	goto	l177
  7603  00235E                     l3243:
  7604                           
  7605                           ;GPIO.c: 493:             break;
  7606  00235E  EFD2  F011         	goto	l177
  7607  002362                     l3247:
  7608  002362  500A               	movf	GPIO_WriteOnPort@a_u8port^0,w,c
  7609  002364  6E07               	movwf	??_GPIO_WriteOnPort^0,c
  7610  002366  6A08               	clrf	(??_GPIO_WriteOnPort+1)^0,c
  7611                           
  7612                           ; Switch on 2 bytes has been partitioned into a top level switch of size 1, and 1 sub-sw
      +                          itches
  7613                           ; Switch size 1, requested type "simple"
  7614                           ; Number of cases is 1, Range of values is 0 to 0
  7615                           ; switch strategies available:
  7616                           ; Name         Instructions Cycles
  7617                           ; simple_byte            4     3 (average)
  7618                           ;	Chosen strategy is simple_byte
  7619  002368  5008               	movf	(??_GPIO_WriteOnPort+1)^0,w,c
  7620  00236A  0A00               	xorlw	0	; case 0
  7621  00236C  B4D8               	btfsc	status,2,c
  7622  00236E  EFBB  F011         	goto	l4621
  7623  002372  EFAF  F011         	goto	l3243
  7624  002376                     l4621:
  7625                           
  7626                           ; Switch size 1, requested type "simple"
  7627                           ; Number of cases is 5, Range of values is 0 to 4
  7628                           ; switch strategies available:
  7629                           ; Name         Instructions Cycles
  7630                           ; simple_byte           16     9 (average)
  7631                           ;	Chosen strategy is simple_byte
  7632  002376  5007               	movf	??_GPIO_WriteOnPort^0,w,c
  7633  002378  0A00               	xorlw	0	; case 0
  7634  00237A  B4D8               	btfsc	status,2,c
  7635  00237C  EF90  F011         	goto	l3225
  7636  002380  0A01               	xorlw	1	; case 1
  7637  002382  B4D8               	btfsc	status,2,c
  7638  002384  EF96  F011         	goto	l3229
  7639  002388  0A03               	xorlw	3	; case 2
  7640  00238A  B4D8               	btfsc	status,2,c
  7641  00238C  EF9C  F011         	goto	l3233
  7642  002390  0A01               	xorlw	1	; case 3
  7643  002392  B4D8               	btfsc	status,2,c
  7644  002394  EFA2  F011         	goto	l3237
  7645  002398  0A07               	xorlw	7	; case 4
  7646  00239A  B4D8               	btfsc	status,2,c
  7647  00239C  EFA8  F011         	goto	l3241
  7648  0023A0  EFAF  F011         	goto	l3243
  7649  0023A4                     l177:
  7650  0023A4  0012               	return		;funcret
  7651  0023A6                     __end_of_GPIO_WriteOnPort:
  7652                           	opt callstack 0
  7653                           
  7654 ;; *************** function _GPIO_WriteOnPin *****************
  7655 ;; Defined at:
  7656 ;;		line 306 in file "GPIO.c"
  7657 ;; Parameters:    Size  Location     Type
  7658 ;;  a_u8port        1    wreg     unsigned char 
  7659 ;;  a_u8pin         1    5[COMRAM] unsigned char 
  7660 ;;  a_u8value       1    6[COMRAM] unsigned char 
  7661 ;; Auto vars:     Size  Location     Type
  7662 ;;  a_u8port        1    9[COMRAM] unsigned char 
  7663 ;;  retVal          1    0        enum E10
  7664 ;; Return value:  Size  Location     Type
  7665 ;;                  1    wreg      enum E10
  7666 ;; Registers used:
  7667 ;;		wreg, status,2, status,0
  7668 ;; Tracked objects:
  7669 ;;		On entry : 0/0
  7670 ;;		On exit  : 0/0
  7671 ;;		Unchanged: 0/0
  7672 ;; Data sizes:     COMRAM   BANK0   BANK1   BANK2   BANK3   BANK4   BANK5
  7673 ;;      Params:         2       0       0       0       0       0       0
  7674 ;;      Locals:         2       0       0       0       0       0       0
  7675 ;;      Temps:          2       0       0       0       0       0       0
  7676 ;;      Totals:         6       0       0       0       0       0       0
  7677 ;;Total ram usage:        6 bytes
  7678 ;; Hardware stack levels used:    1
  7679 ;; Hardware stack levels required when called:    3
  7680 ;; This function calls:
  7681 ;;		Nothing
  7682 ;; This function is called by:
  7683 ;;		_KeyPad_Initialization
  7684 ;;		_KeyPad_getPressedKey
  7685 ;;		_LCD_Initialization
  7686 ;;		_LCD_SendCommand
  7687 ;;		_LCD_SendDataByte
  7688 ;;		_main
  7689 ;;		_User_insert_time_and_start_heating_function
  7690 ;;		_If_heating_is_canceled_function
  7691 ;;		_Heating_process_has_done_function
  7692 ;;		_Reset_to_idle_state
  7693 ;; This function uses a non-reentrant model
  7694 ;;
  7695                           
  7696                           	psect	text51
  7697  000D34                     __ptext51:
  7698                           	opt callstack 0
  7699  000D34                     _GPIO_WriteOnPin:
  7700                           	opt callstack 24
  7701                           
  7702                           ;incstack = 0
  7703                           ;GPIO_WriteOnPin@a_u8port stored from wreg
  7704  000D34  6E0A               	movwf	GPIO_WriteOnPin@a_u8port^0,c
  7705  000D36                     
  7706                           ;GPIO.c: 311:     switch(a_u8port)
  7707  000D36  EFBC  F007         	goto	l3217
  7708  000D3A                     l3123:
  7709                           
  7710                           ;GPIO.c: 315:             if(a_u8pin <= 7u)
  7711  000D3A  0E08               	movlw	8
  7712  000D3C  6006               	cpfslt	GPIO_WriteOnPin@a_u8pin^0,c
  7713  000D3E  EFA3  F006         	goto	u1741
  7714  000D42  EFA5  F006         	goto	u1740
  7715  000D46                     u1741:
  7716  000D46  EFD6  F006         	goto	l3137
  7717  000D4A                     u1740:
  7718  000D4A                     
  7719                           ;GPIO.c: 316:             {;GPIO.c: 317:                 if(a_u8value == 1u)
  7720  000D4A  0407               	decf	GPIO_WriteOnPin@a_u8value^0,w,c
  7721  000D4C  A4D8               	btfss	status,2,c
  7722  000D4E  EFAB  F006         	goto	u1751
  7723  000D52  EFAD  F006         	goto	u1750
  7724  000D56                     u1751:
  7725  000D56  EFBD  F006         	goto	l3131
  7726  000D5A                     u1750:
  7727  000D5A                     
  7728                           ;GPIO.c: 318:                 {;GPIO.c: 319:                     *(volatile uint8*)0xF89
      +                           |= 1 << a_u8pin;
  7729  000D5A  C006  F008         	movff	GPIO_WriteOnPin@a_u8pin,??_GPIO_WriteOnPin
  7730  000D5E  0E01               	movlw	1
  7731  000D60  6E09               	movwf	(??_GPIO_WriteOnPin+1)^0,c
  7732  000D62  2A08               	incf	??_GPIO_WriteOnPin^0,f,c
  7733  000D64  EFB6  F006         	goto	u1764
  7734  000D68                     u1765:
  7735  000D68  90D8               	bcf	status,0,c
  7736  000D6A  3609               	rlcf	(??_GPIO_WriteOnPin+1)^0,f,c
  7737  000D6C                     u1764:
  7738  000D6C  2E08               	decfsz	??_GPIO_WriteOnPin^0,f,c
  7739  000D6E  EFB4  F006         	goto	u1765
  7740  000D72  5009               	movf	(??_GPIO_WriteOnPin+1)^0,w,c
  7741  000D74  1289               	iorwf	137,f,c	;volatile
  7742  000D76                     l3129:
  7743                           
  7744                           ;GPIO.c: 321:                 }
  7745  000D76  EFDD  F007         	goto	l166
  7746  000D7A                     l3131:
  7747  000D7A  5007               	movf	GPIO_WriteOnPin@a_u8value^0,w,c
  7748  000D7C  A4D8               	btfss	status,2,c
  7749  000D7E  EFC3  F006         	goto	u1771
  7750  000D82  EFC5  F006         	goto	u1770
  7751  000D86                     u1771:
  7752  000D86  EFD6  F006         	goto	l3137
  7753  000D8A                     u1770:
  7754  000D8A                     
  7755                           ;GPIO.c: 323:                 {;GPIO.c: 324:                     *(volatile uint8*)0xF89
      +                           &= ~(1 << a_u8pin);
  7756  000D8A  C006  F008         	movff	GPIO_WriteOnPin@a_u8pin,??_GPIO_WriteOnPin
  7757  000D8E  0E01               	movlw	1
  7758  000D90  6E09               	movwf	(??_GPIO_WriteOnPin+1)^0,c
  7759  000D92  2A08               	incf	??_GPIO_WriteOnPin^0,f,c
  7760  000D94  EFCE  F006         	goto	u1784
  7761  000D98                     u1785:
  7762  000D98  90D8               	bcf	status,0,c
  7763  000D9A  3609               	rlcf	(??_GPIO_WriteOnPin+1)^0,f,c
  7764  000D9C                     u1784:
  7765  000D9C  2E08               	decfsz	??_GPIO_WriteOnPin^0,f,c
  7766  000D9E  EFCC  F006         	goto	u1785
  7767  000DA2  5009               	movf	(??_GPIO_WriteOnPin+1)^0,w,c
  7768  000DA4  0AFF               	xorlw	255
  7769  000DA6  1689               	andwf	137,f,c	;volatile
  7770  000DA8  EFBB  F006         	goto	l3129
  7771  000DAC                     l3137:
  7772  000DAC  EFDD  F007         	goto	l166
  7773  000DB0                     l3141:
  7774                           
  7775                           ;GPIO.c: 341:             if(a_u8pin <= 7u)
  7776  000DB0  0E08               	movlw	8
  7777  000DB2  6006               	cpfslt	GPIO_WriteOnPin@a_u8pin^0,c
  7778  000DB4  EFDE  F006         	goto	u1791
  7779  000DB8  EFE0  F006         	goto	u1790
  7780  000DBC                     u1791:
  7781  000DBC  EFD6  F006         	goto	l3137
  7782  000DC0                     u1790:
  7783  000DC0                     
  7784                           ;GPIO.c: 342:             {;GPIO.c: 343:                 if(a_u8value == 1u)
  7785  000DC0  0407               	decf	GPIO_WriteOnPin@a_u8value^0,w,c
  7786  000DC2  A4D8               	btfss	status,2,c
  7787  000DC4  EFE6  F006         	goto	u1801
  7788  000DC8  EFE8  F006         	goto	u1800
  7789  000DCC                     u1801:
  7790  000DCC  EFF8  F006         	goto	l3149
  7791  000DD0                     u1800:
  7792  000DD0                     
  7793                           ;GPIO.c: 344:                 {;GPIO.c: 345:                     *(volatile uint8*)0xF8A
      +                           |= 1 << a_u8pin;
  7794  000DD0  C006  F008         	movff	GPIO_WriteOnPin@a_u8pin,??_GPIO_WriteOnPin
  7795  000DD4  0E01               	movlw	1
  7796  000DD6  6E09               	movwf	(??_GPIO_WriteOnPin+1)^0,c
  7797  000DD8  2A08               	incf	??_GPIO_WriteOnPin^0,f,c
  7798  000DDA  EFF1  F006         	goto	u1814
  7799  000DDE                     u1815:
  7800  000DDE  90D8               	bcf	status,0,c
  7801  000DE0  3609               	rlcf	(??_GPIO_WriteOnPin+1)^0,f,c
  7802  000DE2                     u1814:
  7803  000DE2  2E08               	decfsz	??_GPIO_WriteOnPin^0,f,c
  7804  000DE4  EFEF  F006         	goto	u1815
  7805  000DE8  5009               	movf	(??_GPIO_WriteOnPin+1)^0,w,c
  7806  000DEA  128A               	iorwf	138,f,c	;volatile
  7807  000DEC  EFBB  F006         	goto	l3129
  7808  000DF0                     l3149:
  7809  000DF0  5007               	movf	GPIO_WriteOnPin@a_u8value^0,w,c
  7810  000DF2  A4D8               	btfss	status,2,c
  7811  000DF4  EFFE  F006         	goto	u1821
  7812  000DF8  EF00  F007         	goto	u1820
  7813  000DFC                     u1821:
  7814  000DFC  EFD6  F006         	goto	l3137
  7815  000E00                     u1820:
  7816  000E00                     
  7817                           ;GPIO.c: 349:                 {;GPIO.c: 350:                     *(volatile uint8*)0xF8A
      +                           &= ~(1 << a_u8pin);
  7818  000E00  C006  F008         	movff	GPIO_WriteOnPin@a_u8pin,??_GPIO_WriteOnPin
  7819  000E04  0E01               	movlw	1
  7820  000E06  6E09               	movwf	(??_GPIO_WriteOnPin+1)^0,c
  7821  000E08  2A08               	incf	??_GPIO_WriteOnPin^0,f,c
  7822  000E0A  EF09  F007         	goto	u1834
  7823  000E0E                     u1835:
  7824  000E0E  90D8               	bcf	status,0,c
  7825  000E10  3609               	rlcf	(??_GPIO_WriteOnPin+1)^0,f,c
  7826  000E12                     u1834:
  7827  000E12  2E08               	decfsz	??_GPIO_WriteOnPin^0,f,c
  7828  000E14  EF07  F007         	goto	u1835
  7829  000E18  5009               	movf	(??_GPIO_WriteOnPin+1)^0,w,c
  7830  000E1A  0AFF               	xorlw	255
  7831  000E1C  168A               	andwf	138,f,c	;volatile
  7832  000E1E  EFBB  F006         	goto	l3129
  7833  000E22                     l3159:
  7834                           
  7835                           ;GPIO.c: 367:             if(a_u8pin <= 7u)
  7836  000E22  0E08               	movlw	8
  7837  000E24  6006               	cpfslt	GPIO_WriteOnPin@a_u8pin^0,c
  7838  000E26  EF17  F007         	goto	u1841
  7839  000E2A  EF19  F007         	goto	u1840
  7840  000E2E                     u1841:
  7841  000E2E  EFD6  F006         	goto	l3137
  7842  000E32                     u1840:
  7843  000E32                     
  7844                           ;GPIO.c: 368:             {;GPIO.c: 369:                 if(a_u8value == 1u)
  7845  000E32  0407               	decf	GPIO_WriteOnPin@a_u8value^0,w,c
  7846  000E34  A4D8               	btfss	status,2,c
  7847  000E36  EF1F  F007         	goto	u1851
  7848  000E3A  EF21  F007         	goto	u1850
  7849  000E3E                     u1851:
  7850  000E3E  EF31  F007         	goto	l3167
  7851  000E42                     u1850:
  7852  000E42                     
  7853                           ;GPIO.c: 370:                 {;GPIO.c: 371:                     *(volatile uint8*)0xF8B
      +                           |= 1 << a_u8pin;
  7854  000E42  C006  F008         	movff	GPIO_WriteOnPin@a_u8pin,??_GPIO_WriteOnPin
  7855  000E46  0E01               	movlw	1
  7856  000E48  6E09               	movwf	(??_GPIO_WriteOnPin+1)^0,c
  7857  000E4A  2A08               	incf	??_GPIO_WriteOnPin^0,f,c
  7858  000E4C  EF2A  F007         	goto	u1864
  7859  000E50                     u1865:
  7860  000E50  90D8               	bcf	status,0,c
  7861  000E52  3609               	rlcf	(??_GPIO_WriteOnPin+1)^0,f,c
  7862  000E54                     u1864:
  7863  000E54  2E08               	decfsz	??_GPIO_WriteOnPin^0,f,c
  7864  000E56  EF28  F007         	goto	u1865
  7865  000E5A  5009               	movf	(??_GPIO_WriteOnPin+1)^0,w,c
  7866  000E5C  128B               	iorwf	139,f,c	;volatile
  7867  000E5E  EFBB  F006         	goto	l3129
  7868  000E62                     l3167:
  7869  000E62  5007               	movf	GPIO_WriteOnPin@a_u8value^0,w,c
  7870  000E64  A4D8               	btfss	status,2,c
  7871  000E66  EF37  F007         	goto	u1871
  7872  000E6A  EF39  F007         	goto	u1870
  7873  000E6E                     u1871:
  7874  000E6E  EFD6  F006         	goto	l3137
  7875  000E72                     u1870:
  7876  000E72                     
  7877                           ;GPIO.c: 375:                 {;GPIO.c: 376:                     *(volatile uint8*)0xF8B
      +                           &= ~(1 << a_u8pin);
  7878  000E72  C006  F008         	movff	GPIO_WriteOnPin@a_u8pin,??_GPIO_WriteOnPin
  7879  000E76  0E01               	movlw	1
  7880  000E78  6E09               	movwf	(??_GPIO_WriteOnPin+1)^0,c
  7881  000E7A  2A08               	incf	??_GPIO_WriteOnPin^0,f,c
  7882  000E7C  EF42  F007         	goto	u1884
  7883  000E80                     u1885:
  7884  000E80  90D8               	bcf	status,0,c
  7885  000E82  3609               	rlcf	(??_GPIO_WriteOnPin+1)^0,f,c
  7886  000E84                     u1884:
  7887  000E84  2E08               	decfsz	??_GPIO_WriteOnPin^0,f,c
  7888  000E86  EF40  F007         	goto	u1885
  7889  000E8A  5009               	movf	(??_GPIO_WriteOnPin+1)^0,w,c
  7890  000E8C  0AFF               	xorlw	255
  7891  000E8E  168B               	andwf	139,f,c	;volatile
  7892  000E90  EFBB  F006         	goto	l3129
  7893  000E94                     l3177:
  7894                           
  7895                           ;GPIO.c: 393:             if(a_u8pin <= 7u)
  7896  000E94  0E08               	movlw	8
  7897  000E96  6006               	cpfslt	GPIO_WriteOnPin@a_u8pin^0,c
  7898  000E98  EF50  F007         	goto	u1891
  7899  000E9C  EF52  F007         	goto	u1890
  7900  000EA0                     u1891:
  7901  000EA0  EFD6  F006         	goto	l3137
  7902  000EA4                     u1890:
  7903  000EA4                     
  7904                           ;GPIO.c: 394:             {;GPIO.c: 395:                 if(a_u8value == 1u)
  7905  000EA4  0407               	decf	GPIO_WriteOnPin@a_u8value^0,w,c
  7906  000EA6  A4D8               	btfss	status,2,c
  7907  000EA8  EF58  F007         	goto	u1901
  7908  000EAC  EF5A  F007         	goto	u1900
  7909  000EB0                     u1901:
  7910  000EB0  EF6A  F007         	goto	l3185
  7911  000EB4                     u1900:
  7912  000EB4                     
  7913                           ;GPIO.c: 396:                 {;GPIO.c: 397:                     *(volatile uint8*)0xF8C
      +                           |= 1 << a_u8pin;
  7914  000EB4  C006  F008         	movff	GPIO_WriteOnPin@a_u8pin,??_GPIO_WriteOnPin
  7915  000EB8  0E01               	movlw	1
  7916  000EBA  6E09               	movwf	(??_GPIO_WriteOnPin+1)^0,c
  7917  000EBC  2A08               	incf	??_GPIO_WriteOnPin^0,f,c
  7918  000EBE  EF63  F007         	goto	u1914
  7919  000EC2                     u1915:
  7920  000EC2  90D8               	bcf	status,0,c
  7921  000EC4  3609               	rlcf	(??_GPIO_WriteOnPin+1)^0,f,c
  7922  000EC6                     u1914:
  7923  000EC6  2E08               	decfsz	??_GPIO_WriteOnPin^0,f,c
  7924  000EC8  EF61  F007         	goto	u1915
  7925  000ECC  5009               	movf	(??_GPIO_WriteOnPin+1)^0,w,c
  7926  000ECE  128C               	iorwf	140,f,c	;volatile
  7927  000ED0  EFBB  F006         	goto	l3129
  7928  000ED4                     l3185:
  7929  000ED4  5007               	movf	GPIO_WriteOnPin@a_u8value^0,w,c
  7930  000ED6  A4D8               	btfss	status,2,c
  7931  000ED8  EF70  F007         	goto	u1921
  7932  000EDC  EF72  F007         	goto	u1920
  7933  000EE0                     u1921:
  7934  000EE0  EFD6  F006         	goto	l3137
  7935  000EE4                     u1920:
  7936  000EE4                     
  7937                           ;GPIO.c: 401:                 {;GPIO.c: 402:                     *(volatile uint8*)0xF8C
      +                           &= ~(1 << a_u8pin);
  7938  000EE4  C006  F008         	movff	GPIO_WriteOnPin@a_u8pin,??_GPIO_WriteOnPin
  7939  000EE8  0E01               	movlw	1
  7940  000EEA  6E09               	movwf	(??_GPIO_WriteOnPin+1)^0,c
  7941  000EEC  2A08               	incf	??_GPIO_WriteOnPin^0,f,c
  7942  000EEE  EF7B  F007         	goto	u1934
  7943  000EF2                     u1935:
  7944  000EF2  90D8               	bcf	status,0,c
  7945  000EF4  3609               	rlcf	(??_GPIO_WriteOnPin+1)^0,f,c
  7946  000EF6                     u1934:
  7947  000EF6  2E08               	decfsz	??_GPIO_WriteOnPin^0,f,c
  7948  000EF8  EF79  F007         	goto	u1935
  7949  000EFC  5009               	movf	(??_GPIO_WriteOnPin+1)^0,w,c
  7950  000EFE  0AFF               	xorlw	255
  7951  000F00  168C               	andwf	140,f,c	;volatile
  7952  000F02  EFBB  F006         	goto	l3129
  7953  000F06                     l3195:
  7954                           
  7955                           ;GPIO.c: 419:             if(a_u8pin < 3u)
  7956  000F06  0E03               	movlw	3
  7957  000F08  6006               	cpfslt	GPIO_WriteOnPin@a_u8pin^0,c
  7958  000F0A  EF89  F007         	goto	u1941
  7959  000F0E  EF8B  F007         	goto	u1940
  7960  000F12                     u1941:
  7961  000F12  EFD6  F006         	goto	l3137
  7962  000F16                     u1940:
  7963  000F16                     
  7964                           ;GPIO.c: 420:             {;GPIO.c: 421:                 if(a_u8value == 1u)
  7965  000F16  0407               	decf	GPIO_WriteOnPin@a_u8value^0,w,c
  7966  000F18  A4D8               	btfss	status,2,c
  7967  000F1A  EF91  F007         	goto	u1951
  7968  000F1E  EF93  F007         	goto	u1950
  7969  000F22                     u1951:
  7970  000F22  EFA3  F007         	goto	l3203
  7971  000F26                     u1950:
  7972  000F26                     
  7973                           ;GPIO.c: 422:                 {;GPIO.c: 423:                     *(volatile uint8*)0xF8D
      +                           |= 1 << a_u8pin;
  7974  000F26  C006  F008         	movff	GPIO_WriteOnPin@a_u8pin,??_GPIO_WriteOnPin
  7975  000F2A  0E01               	movlw	1
  7976  000F2C  6E09               	movwf	(??_GPIO_WriteOnPin+1)^0,c
  7977  000F2E  2A08               	incf	??_GPIO_WriteOnPin^0,f,c
  7978  000F30  EF9C  F007         	goto	u1964
  7979  000F34                     u1965:
  7980  000F34  90D8               	bcf	status,0,c
  7981  000F36  3609               	rlcf	(??_GPIO_WriteOnPin+1)^0,f,c
  7982  000F38                     u1964:
  7983  000F38  2E08               	decfsz	??_GPIO_WriteOnPin^0,f,c
  7984  000F3A  EF9A  F007         	goto	u1965
  7985  000F3E  5009               	movf	(??_GPIO_WriteOnPin+1)^0,w,c
  7986  000F40  128D               	iorwf	141,f,c	;volatile
  7987  000F42  EFBB  F006         	goto	l3129
  7988  000F46                     l3203:
  7989  000F46  5007               	movf	GPIO_WriteOnPin@a_u8value^0,w,c
  7990  000F48  A4D8               	btfss	status,2,c
  7991  000F4A  EFA9  F007         	goto	u1971
  7992  000F4E  EFAB  F007         	goto	u1970
  7993  000F52                     u1971:
  7994  000F52  EFD6  F006         	goto	l3137
  7995  000F56                     u1970:
  7996  000F56                     
  7997                           ;GPIO.c: 427:                 {;GPIO.c: 428:                     *(volatile uint8*)0xF8D
      +                           &= ~(1 << a_u8pin);
  7998  000F56  C006  F008         	movff	GPIO_WriteOnPin@a_u8pin,??_GPIO_WriteOnPin
  7999  000F5A  0E01               	movlw	1
  8000  000F5C  6E09               	movwf	(??_GPIO_WriteOnPin+1)^0,c
  8001  000F5E  2A08               	incf	??_GPIO_WriteOnPin^0,f,c
  8002  000F60  EFB4  F007         	goto	u1984
  8003  000F64                     u1985:
  8004  000F64  90D8               	bcf	status,0,c
  8005  000F66  3609               	rlcf	(??_GPIO_WriteOnPin+1)^0,f,c
  8006  000F68                     u1984:
  8007  000F68  2E08               	decfsz	??_GPIO_WriteOnPin^0,f,c
  8008  000F6A  EFB2  F007         	goto	u1985
  8009  000F6E  5009               	movf	(??_GPIO_WriteOnPin+1)^0,w,c
  8010  000F70  0AFF               	xorlw	255
  8011  000F72  168D               	andwf	141,f,c	;volatile
  8012  000F74  EFBB  F006         	goto	l3129
  8013  000F78                     l3217:
  8014  000F78  500A               	movf	GPIO_WriteOnPin@a_u8port^0,w,c
  8015  000F7A  6E08               	movwf	??_GPIO_WriteOnPin^0,c
  8016  000F7C  6A09               	clrf	(??_GPIO_WriteOnPin+1)^0,c
  8017                           
  8018                           ; Switch on 2 bytes has been partitioned into a top level switch of size 1, and 1 sub-sw
      +                          itches
  8019                           ; Switch size 1, requested type "simple"
  8020                           ; Number of cases is 1, Range of values is 0 to 0
  8021                           ; switch strategies available:
  8022                           ; Name         Instructions Cycles
  8023                           ; simple_byte            4     3 (average)
  8024                           ;	Chosen strategy is simple_byte
  8025  000F7E  5009               	movf	(??_GPIO_WriteOnPin+1)^0,w,c
  8026  000F80  0A00               	xorlw	0	; case 0
  8027  000F82  B4D8               	btfsc	status,2,c
  8028  000F84  EFC6  F007         	goto	l4623
  8029  000F88  EFD6  F006         	goto	l3137
  8030  000F8C                     l4623:
  8031                           
  8032                           ; Switch size 1, requested type "simple"
  8033                           ; Number of cases is 5, Range of values is 0 to 4
  8034                           ; switch strategies available:
  8035                           ; Name         Instructions Cycles
  8036                           ; simple_byte           16     9 (average)
  8037                           ;	Chosen strategy is simple_byte
  8038  000F8C  5008               	movf	??_GPIO_WriteOnPin^0,w,c
  8039  000F8E  0A00               	xorlw	0	; case 0
  8040  000F90  B4D8               	btfsc	status,2,c
  8041  000F92  EF9D  F006         	goto	l3123
  8042  000F96  0A01               	xorlw	1	; case 1
  8043  000F98  B4D8               	btfsc	status,2,c
  8044  000F9A  EFD8  F006         	goto	l3141
  8045  000F9E  0A03               	xorlw	3	; case 2
  8046  000FA0  B4D8               	btfsc	status,2,c
  8047  000FA2  EF11  F007         	goto	l3159
  8048  000FA6  0A01               	xorlw	1	; case 3
  8049  000FA8  B4D8               	btfsc	status,2,c
  8050  000FAA  EF4A  F007         	goto	l3177
  8051  000FAE  0A07               	xorlw	7	; case 4
  8052  000FB0  B4D8               	btfsc	status,2,c
  8053  000FB2  EF83  F007         	goto	l3195
  8054  000FB6  EFD6  F006         	goto	l3137
  8055  000FBA                     l166:
  8056  000FBA  0012               	return		;funcret
  8057  000FBC                     __end_of_GPIO_WriteOnPin:
  8058                           	opt callstack 0
  8059                           
  8060 ;; *************** function _ADC_Select_prescaler *****************
  8061 ;; Defined at:
  8062 ;;		line 139 in file "ADC.c"
  8063 ;; Parameters:    Size  Location     Type
  8064 ;;  a_ADC_presca    1    wreg     enum E35
  8065 ;; Auto vars:     Size  Location     Type
  8066 ;;  a_ADC_presca    1    5[COMRAM] enum E35
  8067 ;; Return value:  Size  Location     Type
  8068 ;;                  1    wreg      void 
  8069 ;; Registers used:
  8070 ;;		wreg, status,2, status,0
  8071 ;; Tracked objects:
  8072 ;;		On entry : 0/0
  8073 ;;		On exit  : 0/0
  8074 ;;		Unchanged: 0/0
  8075 ;; Data sizes:     COMRAM   BANK0   BANK1   BANK2   BANK3   BANK4   BANK5
  8076 ;;      Params:         0       0       0       0       0       0       0
  8077 ;;      Locals:         1       0       0       0       0       0       0
  8078 ;;      Temps:          0       0       0       0       0       0       0
  8079 ;;      Totals:         1       0       0       0       0       0       0
  8080 ;;Total ram usage:        1 bytes
  8081 ;; Hardware stack levels used:    1
  8082 ;; Hardware stack levels required when called:    3
  8083 ;; This function calls:
  8084 ;;		Nothing
  8085 ;; This function is called by:
  8086 ;;		_main
  8087 ;; This function uses a non-reentrant model
  8088 ;;
  8089                           
  8090                           	psect	text52
  8091  002A56                     __ptext52:
  8092                           	opt callstack 0
  8093  002A56                     _ADC_Select_prescaler:
  8094                           	opt callstack 27
  8095                           
  8096                           ;incstack = 0
  8097                           ;ADC_Select_prescaler@a_ADC_prescaler_t stored from wreg
  8098  002A56  6E06               	movwf	ADC_Select_prescaler@a_ADC_prescaler_t^0,c
  8099  002A58                     
  8100                           ;ADC.c: 139: void ADC_Select_prescaler(EnumADC_prescaler_t a_ADC_prescaler_t);ADC.c: 140
      +                          : {;ADC.c: 142:     *(volatile uint8*)0xFC0 &= 0xF8;
  8101  002A58  0EF8               	movlw	248
  8102  002A5A  16C0               	andwf	192,f,c	;volatile
  8103                           
  8104                           ;ADC.c: 144:     *(volatile uint8*)0xFC0 |= a_ADC_prescaler_t;
  8105  002A5C  5006               	movf	ADC_Select_prescaler@a_ADC_prescaler_t^0,w,c
  8106  002A5E  12C0               	iorwf	192,f,c	;volatile
  8107  002A60                     
  8108                           ;ADC.c: 146:     *(volatile uint8*)0xFC2 |= 1 << 0u;
  8109  002A60  80C2               	bsf	194,0,c	;volatile
  8110  002A62  0012               	return		;funcret
  8111  002A64                     __end_of_ADC_Select_prescaler:
  8112                           	opt callstack 0
  8113                           
  8114 ;; *************** function _ADC_Select_acquisition_time *****************
  8115 ;; Defined at:
  8116 ;;		line 118 in file "ADC.c"
  8117 ;; Parameters:    Size  Location     Type
  8118 ;;  a_ADC_acquis    1    wreg     enum E25
  8119 ;; Auto vars:     Size  Location     Type
  8120 ;;  a_ADC_acquis    1    5[COMRAM] enum E25
  8121 ;; Return value:  Size  Location     Type
  8122 ;;                  1    wreg      void 
  8123 ;; Registers used:
  8124 ;;		wreg, status,2, status,0
  8125 ;; Tracked objects:
  8126 ;;		On entry : 0/0
  8127 ;;		On exit  : 0/0
  8128 ;;		Unchanged: 0/0
  8129 ;; Data sizes:     COMRAM   BANK0   BANK1   BANK2   BANK3   BANK4   BANK5
  8130 ;;      Params:         0       0       0       0       0       0       0
  8131 ;;      Locals:         1       0       0       0       0       0       0
  8132 ;;      Temps:          0       0       0       0       0       0       0
  8133 ;;      Totals:         1       0       0       0       0       0       0
  8134 ;;Total ram usage:        1 bytes
  8135 ;; Hardware stack levels used:    1
  8136 ;; Hardware stack levels required when called:    3
  8137 ;; This function calls:
  8138 ;;		Nothing
  8139 ;; This function is called by:
  8140 ;;		_main
  8141 ;; This function uses a non-reentrant model
  8142 ;;
  8143                           
  8144                           	psect	text53
  8145  002A38                     __ptext53:
  8146                           	opt callstack 0
  8147  002A38                     _ADC_Select_acquisition_time:
  8148                           	opt callstack 27
  8149                           
  8150                           ;incstack = 0
  8151                           ;ADC_Select_acquisition_time@a_ADC_acquisition_Time_t stored from wreg
  8152  002A38  6E06               	movwf	ADC_Select_acquisition_time@a_ADC_acquisition_Time_t^0,c
  8153  002A3A                     
  8154                           ;ADC.c: 118: void ADC_Select_acquisition_time(EnumADC_acquisition_Time_t a_ADC_acquisiti
      +                          on_Time_t);ADC.c: 119: {;ADC.c: 121:     *(volatile uint8*)0xFC0 &= 0xC7;
  8155  002A3A  0EC7               	movlw	199
  8156  002A3C  16C0               	andwf	192,f,c	;volatile
  8157                           
  8158                           ;ADC.c: 123:     *(volatile uint8*)0xFC0 |= a_ADC_acquisition_Time_t << 3;
  8159  002A3E  3806               	swapf	ADC_Select_acquisition_time@a_ADC_acquisition_Time_t^0,w,c
  8160  002A40  42E8               	rrncf	wreg,f,c
  8161  002A42  0BF8               	andlw	248
  8162  002A44  12C0               	iorwf	192,f,c	;volatile
  8163  002A46  0012               	return		;funcret
  8164  002A48                     __end_of_ADC_Select_acquisition_time:
  8165                           	opt callstack 0
  8166                           
  8167 ;; *************** function _ADC_Initialization *****************
  8168 ;; Defined at:
  8169 ;;		line 36 in file "ADC.c"
  8170 ;; Parameters:    Size  Location     Type
  8171 ;;  a_ADC_channe    1    wreg     enum E10
  8172 ;; Auto vars:     Size  Location     Type
  8173 ;;  a_ADC_channe    1    7[COMRAM] enum E10
  8174 ;; Return value:  Size  Location     Type
  8175 ;;                  1    wreg      void 
  8176 ;; Registers used:
  8177 ;;		wreg, status,2, status,0
  8178 ;; Tracked objects:
  8179 ;;		On entry : 0/0
  8180 ;;		On exit  : 0/0
  8181 ;;		Unchanged: 0/0
  8182 ;; Data sizes:     COMRAM   BANK0   BANK1   BANK2   BANK3   BANK4   BANK5
  8183 ;;      Params:         0       0       0       0       0       0       0
  8184 ;;      Locals:         1       0       0       0       0       0       0
  8185 ;;      Temps:          2       0       0       0       0       0       0
  8186 ;;      Totals:         3       0       0       0       0       0       0
  8187 ;;Total ram usage:        3 bytes
  8188 ;; Hardware stack levels used:    1
  8189 ;; Hardware stack levels required when called:    3
  8190 ;; This function calls:
  8191 ;;		Nothing
  8192 ;; This function is called by:
  8193 ;;		_main
  8194 ;; This function uses a non-reentrant model
  8195 ;;
  8196                           
  8197                           	psect	text54
  8198  0019CA                     __ptext54:
  8199                           	opt callstack 0
  8200  0019CA                     _ADC_Initialization:
  8201                           	opt callstack 27
  8202                           
  8203                           ;incstack = 0
  8204                           ;ADC_Initialization@a_ADC_channel_t stored from wreg
  8205  0019CA  6E08               	movwf	ADC_Initialization@a_ADC_channel_t^0,c
  8206  0019CC                     
  8207                           ;ADC.c: 36: void ADC_Initialization(EnumADC_channels_t a_ADC_channel_t);ADC.c: 37: {;ADC
      +                          .c: 39:     *(volatile uint8*)0xFC2 &= 0xC3;
  8208  0019CC  0EC3               	movlw	195
  8209  0019CE  16C2               	andwf	194,f,c	;volatile
  8210                           
  8211                           ;ADC.c: 41:     *(volatile uint8*)0xFC2 |= a_ADC_channel_t << 2;
  8212  0019D0  4408               	rlncf	ADC_Initialization@a_ADC_channel_t^0,w,c
  8213  0019D2  46E8               	rlncf	wreg,f,c
  8214  0019D4  0BFC               	andlw	252
  8215  0019D6  12C2               	iorwf	194,f,c	;volatile
  8216                           
  8217                           ;ADC.c: 44:     *(volatile uint8*)0xFC1 &= 0xF0;
  8218  0019D8  0EF0               	movlw	240
  8219  0019DA  16C1               	andwf	193,f,c	;volatile
  8220                           
  8221                           ;ADC.c: 45:     switch(a_ADC_channel_t)
  8222  0019DC  EF2E  F00D         	goto	l3929
  8223  0019E0                     l3881:
  8224                           
  8225                           ;ADC.c: 48:             *(volatile uint8*)0xFC1 |= 0x0E;
  8226  0019E0  0E0E               	movlw	14
  8227  0019E2  12C1               	iorwf	193,f,c	;volatile
  8228  0019E4                     
  8229                           ;ADC.c: 49:             *(volatile uint8*)0xF92 |= 1 << 0u;
  8230  0019E4  8092               	bsf	146,0,c	;volatile
  8231                           
  8232                           ;ADC.c: 50:             break;
  8233  0019E6  EF6F  F00D         	goto	l19
  8234  0019EA                     l3885:
  8235                           
  8236                           ;ADC.c: 52:             *(volatile uint8*)0xFC1 |= 0x0D;
  8237  0019EA  0E0D               	movlw	13
  8238  0019EC  12C1               	iorwf	193,f,c	;volatile
  8239  0019EE                     
  8240                           ;ADC.c: 53:             *(volatile uint8*)0xF92 |= 1 << 1u;
  8241  0019EE  8292               	bsf	146,1,c	;volatile
  8242                           
  8243                           ;ADC.c: 54:             break;
  8244  0019F0  EF6F  F00D         	goto	l19
  8245  0019F4                     l3889:
  8246                           
  8247                           ;ADC.c: 56:             *(volatile uint8*)0xFC1 |= 0x0C;
  8248  0019F4  0E0C               	movlw	12
  8249  0019F6  12C1               	iorwf	193,f,c	;volatile
  8250  0019F8                     
  8251                           ;ADC.c: 57:             *(volatile uint8*)0xF92 |= 1 << 2u;
  8252  0019F8  8492               	bsf	146,2,c	;volatile
  8253                           
  8254                           ;ADC.c: 58:             break;
  8255  0019FA  EF6F  F00D         	goto	l19
  8256  0019FE                     l3893:
  8257                           
  8258                           ;ADC.c: 60:             *(volatile uint8*)0xFC1 |= 0x0B;
  8259  0019FE  0E0B               	movlw	11
  8260  001A00  12C1               	iorwf	193,f,c	;volatile
  8261  001A02                     
  8262                           ;ADC.c: 61:             *(volatile uint8*)0xF92 |= 1 << 3u;
  8263  001A02  8692               	bsf	146,3,c	;volatile
  8264                           
  8265                           ;ADC.c: 62:             break;
  8266  001A04  EF6F  F00D         	goto	l19
  8267  001A08                     l3897:
  8268                           
  8269                           ;ADC.c: 64:             *(volatile uint8*)0xFC1 |= 0x0A;
  8270  001A08  0E0A               	movlw	10
  8271  001A0A  12C1               	iorwf	193,f,c	;volatile
  8272  001A0C                     
  8273                           ;ADC.c: 65:             *(volatile uint8*)0xF92 |= 1 << 5u;
  8274  001A0C  8A92               	bsf	146,5,c	;volatile
  8275                           
  8276                           ;ADC.c: 66:             break;
  8277  001A0E  EF6F  F00D         	goto	l19
  8278  001A12                     l3901:
  8279                           
  8280                           ;ADC.c: 68:             *(volatile uint8*)0xFC1 |= 0x09;
  8281  001A12  0E09               	movlw	9
  8282  001A14  12C1               	iorwf	193,f,c	;volatile
  8283  001A16                     
  8284                           ;ADC.c: 69:             *(volatile uint8*)0xF96 |= 1 << 0u;
  8285  001A16  8096               	bsf	150,0,c	;volatile
  8286                           
  8287                           ;ADC.c: 70:             break;
  8288  001A18  EF6F  F00D         	goto	l19
  8289  001A1C                     l3905:
  8290                           
  8291                           ;ADC.c: 72:             *(volatile uint8*)0xFC1 |= 0x08;
  8292  001A1C  86C1               	bsf	193,3,c	;volatile
  8293                           
  8294                           ;ADC.c: 73:             *(volatile uint8*)0xF96 |= 1 << 1u;
  8295  001A1E  8296               	bsf	150,1,c	;volatile
  8296                           
  8297                           ;ADC.c: 74:             break;
  8298  001A20  EF6F  F00D         	goto	l19
  8299  001A24                     l3907:
  8300                           
  8301                           ;ADC.c: 76:             *(volatile uint8*)0xFC1 |= 0x07;
  8302  001A24  0E07               	movlw	7
  8303  001A26  12C1               	iorwf	193,f,c	;volatile
  8304  001A28                     
  8305                           ;ADC.c: 77:             *(volatile uint8*)0xF96 |= 1 << 2u;
  8306  001A28  8496               	bsf	150,2,c	;volatile
  8307                           
  8308                           ;ADC.c: 78:             break;
  8309  001A2A  EF6F  F00D         	goto	l19
  8310  001A2E                     l3911:
  8311                           
  8312                           ;ADC.c: 80:             *(volatile uint8*)0xFC1 |= 0x06;
  8313  001A2E  0E06               	movlw	6
  8314  001A30  12C1               	iorwf	193,f,c	;volatile
  8315  001A32                     
  8316                           ;ADC.c: 81:             *(volatile uint8*)0xF93 |= 1 << 2u;
  8317  001A32  8493               	bsf	147,2,c	;volatile
  8318                           
  8319                           ;ADC.c: 82:             break;
  8320  001A34  EF6F  F00D         	goto	l19
  8321  001A38                     l3915:
  8322                           
  8323                           ;ADC.c: 84:             *(volatile uint8*)0xFC1 |= 0x05;
  8324  001A38  0E05               	movlw	5
  8325  001A3A  12C1               	iorwf	193,f,c	;volatile
  8326  001A3C                     
  8327                           ;ADC.c: 85:             *(volatile uint8*)0xF93 |= 1 << 3u;
  8328  001A3C  8693               	bsf	147,3,c	;volatile
  8329                           
  8330                           ;ADC.c: 86:             break;
  8331  001A3E  EF6F  F00D         	goto	l19
  8332  001A42                     l3919:
  8333                           
  8334                           ;ADC.c: 88:             *(volatile uint8*)0xFC1 |= 0x04;
  8335  001A42  84C1               	bsf	193,2,c	;volatile
  8336                           
  8337                           ;ADC.c: 89:             *(volatile uint8*)0xF93 |= 1 << 1u;
  8338  001A44  8293               	bsf	147,1,c	;volatile
  8339                           
  8340                           ;ADC.c: 90:             break;
  8341  001A46  EF6F  F00D         	goto	l19
  8342  001A4A                     l3921:
  8343                           
  8344                           ;ADC.c: 92:             *(volatile uint8*)0xFC1 |= 0x03;
  8345  001A4A  0E03               	movlw	3
  8346  001A4C  12C1               	iorwf	193,f,c	;volatile
  8347  001A4E                     
  8348                           ;ADC.c: 93:             *(volatile uint8*)0xF93 |= 1 << 4u;
  8349  001A4E  8893               	bsf	147,4,c	;volatile
  8350                           
  8351                           ;ADC.c: 94:             break;
  8352  001A50  EF6F  F00D         	goto	l19
  8353  001A54                     l3925:
  8354                           
  8355                           ;ADC.c: 96:             *(volatile uint8*)0xFC1 |= 0x02;
  8356  001A54  82C1               	bsf	193,1,c	;volatile
  8357                           
  8358                           ;ADC.c: 97:             *(volatile uint8*)0xF93 |= 1 << 0u;
  8359  001A56  8093               	bsf	147,0,c	;volatile
  8360                           
  8361                           ;ADC.c: 98:             break;
  8362  001A58  EF6F  F00D         	goto	l19
  8363  001A5C                     l3929:
  8364  001A5C  5008               	movf	ADC_Initialization@a_ADC_channel_t^0,w,c
  8365  001A5E  6E06               	movwf	??_ADC_Initialization^0,c
  8366  001A60  6A07               	clrf	(??_ADC_Initialization+1)^0,c
  8367                           
  8368                           ; Switch on 2 bytes has been partitioned into a top level switch of size 1, and 1 sub-sw
      +                          itches
  8369                           ; Switch size 1, requested type "simple"
  8370                           ; Number of cases is 1, Range of values is 0 to 0
  8371                           ; switch strategies available:
  8372                           ; Name         Instructions Cycles
  8373                           ; simple_byte            4     3 (average)
  8374                           ;	Chosen strategy is simple_byte
  8375  001A62  5007               	movf	(??_ADC_Initialization+1)^0,w,c
  8376  001A64  0A00               	xorlw	0	; case 0
  8377  001A66  B4D8               	btfsc	status,2,c
  8378  001A68  EF38  F00D         	goto	l4625
  8379  001A6C  EF6F  F00D         	goto	l19
  8380  001A70                     l4625:
  8381                           
  8382                           ; Switch size 1, requested type "simple"
  8383                           ; Number of cases is 13, Range of values is 0 to 12
  8384                           ; switch strategies available:
  8385                           ; Name         Instructions Cycles
  8386                           ; simple_byte           40    21 (average)
  8387                           ;	Chosen strategy is simple_byte
  8388  001A70  5006               	movf	??_ADC_Initialization^0,w,c
  8389  001A72  0A00               	xorlw	0	; case 0
  8390  001A74  B4D8               	btfsc	status,2,c
  8391  001A76  EFF0  F00C         	goto	l3881
  8392  001A7A  0A01               	xorlw	1	; case 1
  8393  001A7C  B4D8               	btfsc	status,2,c
  8394  001A7E  EFF5  F00C         	goto	l3885
  8395  001A82  0A03               	xorlw	3	; case 2
  8396  001A84  B4D8               	btfsc	status,2,c
  8397  001A86  EFFA  F00C         	goto	l3889
  8398  001A8A  0A01               	xorlw	1	; case 3
  8399  001A8C  B4D8               	btfsc	status,2,c
  8400  001A8E  EFFF  F00C         	goto	l3893
  8401  001A92  0A07               	xorlw	7	; case 4
  8402  001A94  B4D8               	btfsc	status,2,c
  8403  001A96  EF04  F00D         	goto	l3897
  8404  001A9A  0A01               	xorlw	1	; case 5
  8405  001A9C  B4D8               	btfsc	status,2,c
  8406  001A9E  EF09  F00D         	goto	l3901
  8407  001AA2  0A03               	xorlw	3	; case 6
  8408  001AA4  B4D8               	btfsc	status,2,c
  8409  001AA6  EF0E  F00D         	goto	l3905
  8410  001AAA  0A01               	xorlw	1	; case 7
  8411  001AAC  B4D8               	btfsc	status,2,c
  8412  001AAE  EF12  F00D         	goto	l3907
  8413  001AB2  0A0F               	xorlw	15	; case 8
  8414  001AB4  B4D8               	btfsc	status,2,c
  8415  001AB6  EF17  F00D         	goto	l3911
  8416  001ABA  0A01               	xorlw	1	; case 9
  8417  001ABC  B4D8               	btfsc	status,2,c
  8418  001ABE  EF1C  F00D         	goto	l3915
  8419  001AC2  0A03               	xorlw	3	; case 10
  8420  001AC4  B4D8               	btfsc	status,2,c
  8421  001AC6  EF21  F00D         	goto	l3919
  8422  001ACA  0A01               	xorlw	1	; case 11
  8423  001ACC  B4D8               	btfsc	status,2,c
  8424  001ACE  EF25  F00D         	goto	l3921
  8425  001AD2  0A07               	xorlw	7	; case 12
  8426  001AD4  B4D8               	btfsc	status,2,c
  8427  001AD6  EF2A  F00D         	goto	l3925
  8428  001ADA  EF6F  F00D         	goto	l19
  8429  001ADE                     l19:
  8430  001ADE  0012               	return		;funcret
  8431  001AE0                     __end_of_ADC_Initialization:
  8432                           	opt callstack 0
  8433                           
  8434 ;; *************** function _ISR *****************
  8435 ;; Defined at:
  8436 ;;		line 1335 in file "interrupt.c"
  8437 ;; Parameters:    Size  Location     Type
  8438 ;;		None
  8439 ;; Auto vars:     Size  Location     Type
  8440 ;;		None
  8441 ;; Return value:  Size  Location     Type
  8442 ;;                  1    wreg      void 
  8443 ;; Registers used:
  8444 ;;		wreg, status,2, status,0, pclath, tosl, cstack
  8445 ;; Tracked objects:
  8446 ;;		On entry : 0/0
  8447 ;;		On exit  : 0/0
  8448 ;;		Unchanged: 0/0
  8449 ;; Data sizes:     COMRAM   BANK0   BANK1   BANK2   BANK3   BANK4   BANK5
  8450 ;;      Params:         0       0       0       0       0       0       0
  8451 ;;      Locals:         0       0       0       0       0       0       0
  8452 ;;      Temps:          3       0       0       0       0       0       0
  8453 ;;      Totals:         3       0       0       0       0       0       0
  8454 ;;Total ram usage:        3 bytes
  8455 ;; Hardware stack levels used:    1
  8456 ;; Hardware stack levels required when called:    2
  8457 ;; This function calls:
  8458 ;;		Absolute function
  8459 ;;		_TIMER0_ISR
  8460 ;; This function is called by:
  8461 ;;		Interrupt level 2
  8462 ;; This function uses a non-reentrant model
  8463 ;;
  8464                           
  8465                           	psect	intcode
  8466  000008                     __pintcode:
  8467                           	opt callstack 0
  8468  000008                     _ISR:
  8469                           	opt callstack 21
  8470                           
  8471                           ;incstack = 0
  8472  000008  8257               	bsf	int$flags,1,c	;set compiler interrupt flag (level 2)
  8473  00000A  ED3E  F014         	call	int_func,f	;refresh shadow registers
  8474                           
  8475                           	psect	intcode_body
  8476  00287C                     __pintcode_body:
  8477                           	opt callstack 21
  8478  00287C                     int_func:
  8479                           	opt callstack 21
  8480  00287C  0006               	pop		; remove dummy address from shadow register refresh
  8481  00287E  CFFA F004          	movff	pclath,??_ISR+1
  8482  002882  CFFB F005          	movff	pclatu,??_ISR+2
  8483  002886                     
  8484                           ;interrupt.c: 1340:     if((*(volatile uint8*)0xFF2 >> 2u) & 0x01)
  8485  002886  CFF2 F003          	movff	4082,??_ISR	;volatile
  8486  00288A  90D8               	bcf	status,0,c
  8487  00288C  3203               	rrcf	??_ISR^0,f,c
  8488  00288E  90D8               	bcf	status,0,c
  8489  002890  3203               	rrcf	??_ISR^0,f,c
  8490  002892  A003               	btfss	??_ISR^0,0,c
  8491  002894  EF4E  F014         	goto	i2u314_41
  8492  002898  EF50  F014         	goto	i2u314_40
  8493  00289C                     i2u314_41:
  8494  00289C  EF67  F014         	goto	i2l303
  8495  0028A0                     i2u314_40:
  8496  0028A0                     
  8497                           ;interrupt.c: 1341:     {;interrupt.c: 1343:         if(timer0_callback_ptr != (void*)0x
      +                          00)
  8498  0028A0  5042               	movf	_timer0_callback_ptr^0,w,c
  8499  0028A2  1043               	iorwf	(_timer0_callback_ptr+1)^0,w,c
  8500  0028A4  B4D8               	btfsc	status,2,c
  8501  0028A6  EF57  F014         	goto	i2u315_41
  8502  0028AA  EF59  F014         	goto	i2u315_40
  8503  0028AE                     i2u315_41:
  8504  0028AE  EF66  F014         	goto	i2l4435
  8505  0028B2                     i2u315_40:
  8506  0028B2                     
  8507                           ;interrupt.c: 1344:         {;interrupt.c: 1346:             timer0_callback_ptr();
  8508  0028B2  D802               	call	i2u316_48
  8509  0028B4  EF66  F014         	goto	i2u316_49
  8510  0028B8                     i2u316_48:
  8511  0028B8  0005               	push	
  8512  0028BA  6EFA               	movwf	pclath,c
  8513  0028BC  5042               	movf	_timer0_callback_ptr^0,w,c
  8514  0028BE  6EFD               	movwf	tosl,c
  8515  0028C0  5043               	movf	(_timer0_callback_ptr+1)^0,w,c
  8516  0028C2  6EFE               	movwf	tosh,c
  8517  0028C4  50F8               	movf	tblptru,w,c
  8518  0028C6  6EFF               	movwf	tosu,c
  8519  0028C8  50FA               	movf	pclath,w,c
  8520  0028CA  0012               	return		;indir
  8521  0028CC                     i2u316_49:
  8522  0028CC                     i2l4435:
  8523                           
  8524                           ;interrupt.c: 1353:         *(volatile uint8*)0xFF2 &= ~(1 << 2u);
  8525  0028CC  94F2               	bcf	242,2,c	;volatile
  8526  0028CE                     i2l303:
  8527  0028CE  C005  FFFB         	movff	??_ISR+2,pclatu
  8528  0028D2  C004  FFFA         	movff	??_ISR+1,pclath
  8529  0028D6  9257               	bcf	int$flags,1,c	;clear compiler interrupt flag (level 2)
  8530  0028D8  0011               	retfie		f
  8531  0028DA                     __end_of_ISR:
  8532                           	opt callstack 0
  8533                           
  8534 ;; *************** function _TIMER0_ISR *****************
  8535 ;; Defined at:
  8536 ;;		line 109 in file "microwave.c"
  8537 ;; Parameters:    Size  Location     Type
  8538 ;;		None
  8539 ;; Auto vars:     Size  Location     Type
  8540 ;;		None
  8541 ;; Return value:  Size  Location     Type
  8542 ;;                  1    wreg      void 
  8543 ;; Registers used:
  8544 ;;		wreg, status,2, status,0, cstack
  8545 ;; Tracked objects:
  8546 ;;		On entry : 0/0
  8547 ;;		On exit  : 0/0
  8548 ;;		Unchanged: 0/0
  8549 ;; Data sizes:     COMRAM   BANK0   BANK1   BANK2   BANK3   BANK4   BANK5
  8550 ;;      Params:         0       0       0       0       0       0       0
  8551 ;;      Locals:         0       0       0       0       0       0       0
  8552 ;;      Temps:          0       0       0       0       0       0       0
  8553 ;;      Totals:         0       0       0       0       0       0       0
  8554 ;;Total ram usage:        0 bytes
  8555 ;; Hardware stack levels used:    1
  8556 ;; Hardware stack levels required when called:    1
  8557 ;; This function calls:
  8558 ;;		_Timer0_write_counter
  8559 ;; This function is called by:
  8560 ;;		_main
  8561 ;;		_ISR
  8562 ;; This function uses a non-reentrant model
  8563 ;;
  8564                           
  8565                           	psect	text56
  8566  002A20                     __ptext56:
  8567                           	opt callstack 0
  8568  002A20                     _TIMER0_ISR:
  8569                           	opt callstack 21
  8570  002A20                     
  8571                           ;microwave.c: 112:     Timer0_write_counter(3037);
  8572  002A20  0E0B               	movlw	11
  8573  002A22  6E02               	movwf	(Timer0_write_counter@a_u16init_value_for_timer+1)^0,c
  8574  002A24  0EDD               	movlw	221
  8575  002A26  6E01               	movwf	Timer0_write_counter@a_u16init_value_for_timer^0,c
  8576  002A28  ECDF  F014         	call	_Timer0_write_counter	;wreg free
  8577  002A2C                     
  8578                           ;microwave.c: 114:     g_u16MicrowaveTime--;
  8579  002A2C  0640               	decf	_g_u16MicrowaveTime^0,f,c
  8580  002A2E  A0D8               	btfss	status,0,c
  8581  002A30  0641               	decf	(_g_u16MicrowaveTime+1)^0,f,c
  8582  002A32                     
  8583                           ;microwave.c: 116:     g_u8heating_finished_flag = 1;
  8584  002A32  0E01               	movlw	1
  8585  002A34  6E47               	movwf	_g_u8heating_finished_flag^0,c
  8586  002A36  0012               	return		;funcret
  8587  002A38                     __end_of_TIMER0_ISR:
  8588                           	opt callstack 0
  8589                           
  8590 ;; *************** function _Timer0_write_counter *****************
  8591 ;; Defined at:
  8592 ;;		line 151 in file "timers.c"
  8593 ;; Parameters:    Size  Location     Type
  8594 ;;  a_u16init_va    2    0[COMRAM] unsigned short 
  8595 ;; Auto vars:     Size  Location     Type
  8596 ;;		None
  8597 ;; Return value:  Size  Location     Type
  8598 ;;                  1    wreg      void 
  8599 ;; Registers used:
  8600 ;;		wreg, status,2
  8601 ;; Tracked objects:
  8602 ;;		On entry : 0/0
  8603 ;;		On exit  : 0/0
  8604 ;;		Unchanged: 0/0
  8605 ;; Data sizes:     COMRAM   BANK0   BANK1   BANK2   BANK3   BANK4   BANK5
  8606 ;;      Params:         2       0       0       0       0       0       0
  8607 ;;      Locals:         0       0       0       0       0       0       0
  8608 ;;      Temps:          0       0       0       0       0       0       0
  8609 ;;      Totals:         2       0       0       0       0       0       0
  8610 ;;Total ram usage:        2 bytes
  8611 ;; Hardware stack levels used:    1
  8612 ;; This function calls:
  8613 ;;		Nothing
  8614 ;; This function is called by:
  8615 ;;		_TIMER0_ISR
  8616 ;; This function uses a non-reentrant model
  8617 ;;
  8618                           
  8619                           	psect	text57
  8620  0029BE                     __ptext57:
  8621                           	opt callstack 0
  8622  0029BE                     _Timer0_write_counter:
  8623                           	opt callstack 21
  8624  0029BE                     
  8625                           ;timers.c: 151: void Timer0_write_counter(uint16 a_u16init_value_for_timer);timers.c: 15
      +                          2: {;timers.c: 154:     if(Timer0_config_t.timer_size_t == TIMER_8BIT_SIZE)
  8626  0029BE  504B               	movf	(_Timer0_config_t+1)^0,w,c
  8627  0029C0  A4D8               	btfss	status,2,c
  8628  0029C2  EFE5  F014         	goto	i2u267_41
  8629  0029C6  EFE7  F014         	goto	i2u267_40
  8630  0029CA                     i2u267_41:
  8631  0029CA  EFEB  F014         	goto	i2l3777
  8632  0029CE                     i2u267_40:
  8633  0029CE                     i2l3775:
  8634                           
  8635                           ;timers.c: 155:     {;timers.c: 156:         *(volatile uint8*)0xFD6 = (uint8)a_u16init_
      +                          value_for_timer;
  8636  0029CE  C001  FFD6         	movff	Timer0_write_counter@a_u16init_value_for_timer,4054	;volatile
  8637                           
  8638                           ;timers.c: 157:     }
  8639  0029D2  EFEF  F014         	goto	i2l746
  8640  0029D6                     i2l3777:
  8641                           
  8642                           ;timers.c: 159:     {;timers.c: 160:         *(volatile uint8*)0xFD7 = a_u16init_value_f
      +                          or_timer >> 8;
  8643  0029D6  5002               	movf	(Timer0_write_counter@a_u16init_value_for_timer+1)^0,w,c
  8644  0029D8  6ED7               	movwf	215,c	;volatile
  8645  0029DA  EFE7  F014         	goto	i2l3775
  8646  0029DE                     i2l746:
  8647  0029DE  0012               	return		;funcret
  8648  0029E0                     __end_of_Timer0_write_counter:
  8649                           	opt callstack 0
  8650                           
  8651                           	psect	text58
  8652  000000                     __ptext58:
  8653                           	opt callstack 0
  8654  000000                     
  8655                           	psect	rparam
  8656  0000                     
  8657                           	psect	temp
  8658  000057                     btemp:
  8659                           	opt callstack 0
  8660  000057                     	ds	1
  8661  0000                     int$flags	set	btemp
  8662  0000                     wtemp8	set	btemp+1
  8663  0000                     ttemp5	set	btemp+1
  8664  0000                     ttemp6	set	btemp+4
  8665  0000                     ttemp7	set	btemp+8
  8666                           tosu	equ	0xFFF
  8667                           tosh	equ	0xFFE
  8668                           tosl	equ	0xFFD
  8669                           stkptr	equ	0xFFC
  8670                           pclatu	equ	0xFFB
  8671                           pclath	equ	0xFFA
  8672                           pcl	equ	0xFF9
  8673                           tblptru	equ	0xFF8
  8674                           tblptrh	equ	0xFF7
  8675                           tblptrl	equ	0xFF6
  8676                           tablat	equ	0xFF5
  8677                           prodh	equ	0xFF4
  8678                           prodl	equ	0xFF3
  8679                           indf0	equ	0xFEF
  8680                           postinc0	equ	0xFEE
  8681                           postdec0	equ	0xFED
  8682                           preinc0	equ	0xFEC
  8683                           plusw0	equ	0xFEB
  8684                           fsr0h	equ	0xFEA
  8685                           fsr0l	equ	0xFE9
  8686                           wreg	equ	0xFE8
  8687                           indf1	equ	0xFE7
  8688                           postinc1	equ	0xFE6
  8689                           postdec1	equ	0xFE5
  8690                           preinc1	equ	0xFE4
  8691                           plusw1	equ	0xFE3
  8692                           fsr1h	equ	0xFE2
  8693                           fsr1l	equ	0xFE1
  8694                           bsr	equ	0xFE0
  8695                           indf2	equ	0xFDF
  8696                           postinc2	equ	0xFDE
  8697                           postdec2	equ	0xFDD
  8698                           preinc2	equ	0xFDC
  8699                           plusw2	equ	0xFDB
  8700                           fsr2h	equ	0xFDA
  8701                           fsr2l	equ	0xFD9
  8702                           status	equ	0xFD8


Data Sizes:
    Strings     229
    Constant    0
    Data        13
    BSS         16
    Persistent  0
    Stack       0

Auto Spaces:
    Space          Size  Autos    Used
    COMRAM          126     57      86
    BANK0           128      0       0
    BANK1           256      0       0
    BANK2           256      0       0
    BANK3           256      0       0
    BANK4           256      0       0
    BANK5           256      0       0

Pointer List with Targets:

    LCD_SendDataString@a_u8data_ptr	PTR unsigned char  size(2) Largest target is 17
		 -> STR_27(CODE[17]), STR_26(CODE[17]), STR_25(CODE[17]), STR_24(CODE[17]), 
		 -> STR_23(CODE[13]), STR_22(CODE[6]), STR_21(CODE[6]), STR_20(CODE[10]), 
		 -> STR_19(CODE[10]), STR_18(CODE[17]), STR_17(CODE[11]), STR_16(CODE[6]), 
		 -> STR_15(CODE[12]), STR_14(CODE[13]), STR_13(CODE[17]), STR_12(CODE[6]), 
		 -> STR_11(CODE[7]), STR_10(CODE[17]), STR_9(CODE[17]), STR_8(CODE[16]), 
		 -> STR_7(CODE[17]), STR_6(CODE[13]), STR_5(CODE[7]), g_u8timer_arr(COMRAM[6]), 
		 -> STR_4(CODE[7]), STR_3(CODE[7]), STR_2(CODE[7]), STR_1(CODE[7]), 

    Timer0_set_callback_function@a_function_ptr	PTR FTN()void  size(2) Largest target is 1
		 -> TIMER0_ISR(), 

    timer0_callback_ptr	PTR FTN()void  size(2) Largest target is 1
		 -> TIMER0_ISR(), Absolute function(), 


Critical Paths under _main in COMRAM

    _main->_User_insert_time_and_start_heating_function
    _Welcome_screen_display->_LCD_SendDataString
    _Weight_sensor_function->_LCD_SendDataString
    _User_insert_time_and_start_heating_function->_LCD_DisplaNumber
    _Set_and_Display_desired_temp->_LCD_DisplaNumber
    ___wmul->_ADC_Read_value
    _PWM_DutyCycle->___lldiv
    _LCD_DisplaNumber->___lldiv
    _Reset_to_idle_state->_Door_sensor_function
    _Home_screen_display->_LCD_SendDataString
    _Door_sensor_function->_LCD_SendDataString
    _PWM_Frequency->___lldiv
    ___lldiv->___lmul
    _LCD_Initialization->_LCD_SendCommand
    _If_heating_is_canceled_function->_LCD_SendDataString
    _KeyPad_getPressedKey->_GPIO_WriteOnPin
    _KeyPad_Initialization->_GPIO_SetPinDirection
    _KeyPad_Initialization->_GPIO_WriteOnPin
    _Heating_process_has_done_function->_LCD_SendDataString
    _LCD_SendDataString->_LCD_SendDataByte
    _LCD_ClearScreen->_LCD_SendCommand
    _Display_remind_time->___lwmod
    ___lwmod->___lwdiv
    ___lwdiv->___wmul
    _LCD_SendDataByte->_LCD_SetDisplayPosition
    _LCD_SetDisplayPosition->_LCD_SendCommand
    _LCD_SendCommand->_GPIO_WriteOnPin

Critical Paths under _ISR in COMRAM

    _TIMER0_ISR->_Timer0_write_counter

Critical Paths under _main in BANK0

    None.

Critical Paths under _ISR in BANK0

    None.

Critical Paths under _main in BANK1

    None.

Critical Paths under _ISR in BANK1

    None.

Critical Paths under _main in BANK2

    None.

Critical Paths under _ISR in BANK2

    None.

Critical Paths under _main in BANK3

    None.

Critical Paths under _ISR in BANK3

    None.

Critical Paths under _main in BANK4

    None.

Critical Paths under _ISR in BANK4

    None.

Critical Paths under _main in BANK5

    None.

Critical Paths under _ISR in BANK5

    None.

Call Graph Tables:

 ---------------------------------------------------------------------------------
 (Depth) Function   	        Calls       Base Space   Used Autos Params    Refs
 ---------------------------------------------------------------------------------
 (0) _main                                                 2     2      0  561191
                                             55 COMRAM     2     2      0
                 _ADC_Initialization
        _ADC_Select_acquisition_time
               _ADC_Select_prescaler
                _Display_remind_time
               _Door_sensor_function
           _GPIO_Disable_ADC_On_Pins
   _GPIO_Disable_Comparator_On_PORTA
       _GPIO_Enable_Pull_Up_On_PortB
               _GPIO_SetPinDirection
                    _GPIO_WriteOnPin
  _Heating_process_has_done_function
                _Home_screen_display
    _If_heating_is_canceled_function
                    _LCD_ClearScreen
                 _LCD_Initialization
                      _PWM_Frequency
                 _PWM_Initialization
                _Reset_to_idle_state
       _Set_and_Display_desired_temp
              _Timer0_Initialization
       _Timer0_set_callback_function
_User_insert_time_and_start_heating_
             _Weight_sensor_function
             _Welcome_screen_display
 ---------------------------------------------------------------------------------
 (1) _Welcome_screen_display                               2     2      0   29665
                                             19 COMRAM     2     2      0
                 _LCD_SendDataString
             _LCD_SetDisplayPosition
 ---------------------------------------------------------------------------------
 (1) _Weight_sensor_function                               1     1      0   30357
                                             19 COMRAM     1     1      0
                   _GPIO_ReadFromPin
                 _LCD_SendDataString
             _LCD_SetDisplayPosition
 ---------------------------------------------------------------------------------
 (1) _User_insert_time_and_start_heating_function          4     4      0  138346
                                             51 COMRAM     4     4      0
                    _GPIO_WriteOnPin
            _Global_interrupt_enable
                _Home_screen_display
              _KeyPad_Initialization
               _KeyPad_getPressedKey
                    _LCD_ClearScreen
                   _LCD_DisplaNumber
                   _LCD_SendDataByte
                 _LCD_SendDataString
             _LCD_SetDisplayPosition
                          _PWM_Start
                      _Timer0_enable
   _Timer0_enable_overflow_interrupt
                            ___lwdiv
                            ___lwmod
                             ___wmul
 ---------------------------------------------------------------------------------
 (2) _Timer0_enable_overflow_interrupt                     0     0      0       0
 ---------------------------------------------------------------------------------
 (2) _Timer0_enable                                        0     0      0       0
 ---------------------------------------------------------------------------------
 (2) _PWM_Start                                            1     1      0      22
                                              5 COMRAM     1     1      0
 ---------------------------------------------------------------------------------
 (2) _Global_interrupt_enable                              0     0      0       0
 ---------------------------------------------------------------------------------
 (1) _Timer0_set_callback_function                         2     0      2      98
                                              5 COMRAM     2     0      2
 ---------------------------------------------------------------------------------
 (1) _Timer0_Initialization                                0     0      0       0
 ---------------------------------------------------------------------------------
 (1) _Set_and_Display_desired_temp                         2     2      0   33760
                                             51 COMRAM     2     2      0
                     _ADC_Read_value
               _ADC_Start_conversion
                   _LCD_DisplaNumber
             _LCD_SetDisplayPosition
                      _PWM_DutyCycle
                            ___lwdiv
                             ___wmul
 ---------------------------------------------------------------------------------
 (2) ___wmul                                               6     2      4     615
                                             13 COMRAM     6     2      4
                     _ADC_Read_value (ARG)
 ---------------------------------------------------------------------------------
 (2) _PWM_DutyCycle                                        6     5      1    2001
                                             30 COMRAM     6     5      1
                      _Timer2_enable
                            ___lldiv
                             ___lmul
 ---------------------------------------------------------------------------------
 (3) _Timer2_enable                                        0     0      0       0
 ---------------------------------------------------------------------------------
 (2) _LCD_DisplaNumber                                    21    17      4   19845
                                             30 COMRAM    21    17      4
                   _LCD_SendDataByte
                            ___lldiv
                            ___llmod
                             ___lmul
 ---------------------------------------------------------------------------------
 (3) ___lmul                                              12     4      8     522
                                              5 COMRAM    12     4      8
 ---------------------------------------------------------------------------------
 (3) ___llmod                                              9     1      8     311
                                              5 COMRAM     9     1      8
 ---------------------------------------------------------------------------------
 (2) _ADC_Start_conversion                                 0     0      0       0
 ---------------------------------------------------------------------------------
 (2) _ADC_Read_value                                       8     6      2      25
                                              5 COMRAM     8     6      2
 ---------------------------------------------------------------------------------
 (1) _Reset_to_idle_state                                  0     0      0   98640
               _Door_sensor_function
                    _GPIO_WriteOnPin
                _Home_screen_display
              _KeyPad_Initialization
               _KeyPad_getPressedKey
                    _LCD_ClearScreen
 ---------------------------------------------------------------------------------
 (2) _Home_screen_display                                  0     0      0   36909
                    _LCD_ClearScreen
                 _LCD_SendDataString
             _LCD_SetDisplayPosition
 ---------------------------------------------------------------------------------
 (2) _Door_sensor_function                                 1     1      0   30357
                                             19 COMRAM     1     1      0
                   _GPIO_ReadFromPin
                 _LCD_SendDataString
             _LCD_SetDisplayPosition
 ---------------------------------------------------------------------------------
 (1) _PWM_Initialization                                   1     1      0      22
                                              5 COMRAM     1     1      0
 ---------------------------------------------------------------------------------
 (1) _PWM_Frequency                                       10     6      4    1501
                                             30 COMRAM    10     6      4
              _Timer2_Initialization
       _Timer2_write_period_register
                            ___lldiv
 ---------------------------------------------------------------------------------
 (3) ___lldiv                                             13     5      8    1226
                                             17 COMRAM    13     5      8
                             ___lmul (ARG)
 ---------------------------------------------------------------------------------
 (2) _Timer2_write_period_register                         1     1      0      22
                                              5 COMRAM     1     1      0
 ---------------------------------------------------------------------------------
 (2) _Timer2_Initialization                                0     0      0       0
 ---------------------------------------------------------------------------------
 (1) _LCD_Initialization                                   0     0      0   17194
               _GPIO_SetPinDirection
                    _GPIO_WriteOnPin
                   _GPIO_WriteOnPort
                    _LCD_SendCommand
 ---------------------------------------------------------------------------------
 (1) _If_heating_is_canceled_function                      0     0      0   53817
                    _GPIO_WriteOnPin
           _Global_interrupt_disable
              _KeyPad_Initialization
               _KeyPad_getPressedKey
                 _LCD_SendDataString
             _LCD_SetDisplayPosition
                           _PWM_Stop
                     _Timer0_disable
  _Timer0_disable_overflow_interrupt
 ---------------------------------------------------------------------------------
 (2) _KeyPad_getPressedKey                                 4     4      0    7862
                                             11 COMRAM     4     4      0
                   _GPIO_ReadFromPin
                    _GPIO_WriteOnPin
                      _KeyPad_switch
 ---------------------------------------------------------------------------------
 (3) _KeyPad_switch                                        5     4      1     221
                                              5 COMRAM     5     4      1
 ---------------------------------------------------------------------------------
 (2) _GPIO_ReadFromPin                                     5     4      1     692
                                              5 COMRAM     5     4      1
 ---------------------------------------------------------------------------------
 (2) _KeyPad_Initialization                                2     2      0    9588
                                             11 COMRAM     2     2      0
               _GPIO_SetPinDirection
                    _GPIO_WriteOnPin
 ---------------------------------------------------------------------------------
 (3) _GPIO_SetPinDirection                                 6     4      2    2750
                                              5 COMRAM     6     4      2
 ---------------------------------------------------------------------------------
 (1) _Heating_process_has_done_function                    0     0      0   43611
                    _GPIO_WriteOnPin
           _Global_interrupt_disable
                    _LCD_ClearScreen
                 _LCD_SendDataString
             _LCD_SetDisplayPosition
                           _PWM_Stop
                     _Timer0_disable
  _Timer0_disable_overflow_interrupt
 ---------------------------------------------------------------------------------
 (2) _Timer0_disable_overflow_interrupt                    0     0      0       0
 ---------------------------------------------------------------------------------
 (2) _Timer0_disable                                       0     0      0       0
 ---------------------------------------------------------------------------------
 (2) _PWM_Stop                                             1     1      0      22
                                              5 COMRAM     1     1      0
 ---------------------------------------------------------------------------------
 (2) _LCD_SendDataString                                   2     0      2   19617
                                             17 COMRAM     2     0      2
                   _LCD_SendDataByte
 ---------------------------------------------------------------------------------
 (2) _LCD_ClearScreen                                      0     0      0    7244
                    _LCD_SendCommand
 ---------------------------------------------------------------------------------
 (2) _Global_interrupt_disable                             0     0      0       0
 ---------------------------------------------------------------------------------
 (1) _GPIO_Enable_Pull_Up_On_PortB                         0     0      0       0
 ---------------------------------------------------------------------------------
 (1) _GPIO_Disable_Comparator_On_PORTA                     0     0      0       0
 ---------------------------------------------------------------------------------
 (1) _GPIO_Disable_ADC_On_Pins                             5     4      1     188
                                              5 COMRAM     5     4      1
 ---------------------------------------------------------------------------------
 (1) _Display_remind_time                                  2     2      0   29964
                                             31 COMRAM     2     2      0
                   _LCD_SendDataByte
             _LCD_SetDisplayPosition
                            ___lwdiv
                            ___lwmod
 ---------------------------------------------------------------------------------
 (2) ___lwmod                                              5     1      4    1375
                                             26 COMRAM     5     1      4
                            ___lwdiv (ARG)
 ---------------------------------------------------------------------------------
 (2) ___lwdiv                                              7     3      4    1226
                                             19 COMRAM     7     3      4
                     _ADC_Read_value (ARG)
                             ___wmul (ARG)
 ---------------------------------------------------------------------------------
 (3) _LCD_SendDataByte                                     1     1      0   17292
                                             16 COMRAM     1     1      0
                    _GPIO_WriteOnPin
                   _GPIO_WriteOnPort
             _LCD_SetDisplayPosition
 ---------------------------------------------------------------------------------
 (2) _LCD_SetDisplayPosition                               4     3      1   10048
                                             12 COMRAM     4     3      1
                    _LCD_SendCommand
 ---------------------------------------------------------------------------------
 (3) _LCD_SendCommand                                      1     1      0    7244
                                             11 COMRAM     1     1      0
                    _GPIO_WriteOnPin
                   _GPIO_WriteOnPort
 ---------------------------------------------------------------------------------
 (4) _GPIO_WriteOnPort                                     5     4      1     520
                                              5 COMRAM     5     4      1
 ---------------------------------------------------------------------------------
 (4) _GPIO_WriteOnPin                                      6     4      2    6680
                                              5 COMRAM     6     4      2
 ---------------------------------------------------------------------------------
 (1) _ADC_Select_prescaler                                 1     1      0      22
                                              5 COMRAM     1     1      0
 ---------------------------------------------------------------------------------
 (1) _ADC_Select_acquisition_time                          1     1      0      22
                                              5 COMRAM     1     1      0
 ---------------------------------------------------------------------------------
 (1) _ADC_Initialization                                   3     3      0      44
                                              5 COMRAM     3     3      0
 ---------------------------------------------------------------------------------
 Estimated maximum stack depth 4
 ---------------------------------------------------------------------------------
 (Depth) Function   	        Calls       Base Space   Used Autos Params    Refs
 ---------------------------------------------------------------------------------
 (8) _ISR                                                  3     3      0     142
                                              2 COMRAM     3     3      0
                   Absolute function *
                         _TIMER0_ISR *
 ---------------------------------------------------------------------------------
 (9) _TIMER0_ISR                                           0     0      0     142
               _Timer0_write_counter
 ---------------------------------------------------------------------------------
 (10) _Timer0_write_counter                                2     0      2     142
                                              0 COMRAM     2     0      2
 ---------------------------------------------------------------------------------
 (9) Absolute function(Fake)                               0     0      0       0
 ---------------------------------------------------------------------------------
 Estimated maximum stack depth 10
 ---------------------------------------------------------------------------------

 Call Graph Graphs:

 _main (ROOT)
   _ADC_Initialization
   _ADC_Select_acquisition_time
   _ADC_Select_prescaler
   _Display_remind_time
     _LCD_SendDataByte
       _GPIO_WriteOnPin
       _GPIO_WriteOnPort
       _LCD_SetDisplayPosition
         _LCD_SendCommand
           _GPIO_WriteOnPin
           _GPIO_WriteOnPort
     _LCD_SetDisplayPosition
       _LCD_SendCommand
         _GPIO_WriteOnPin
         _GPIO_WriteOnPort
     ___lwdiv
       _ADC_Read_value (ARG)
       ___wmul (ARG)
         _ADC_Read_value (ARG)
     ___lwmod
       ___lwdiv (ARG)
         _ADC_Read_value (ARG)
         ___wmul (ARG)
           _ADC_Read_value (ARG)
   _Door_sensor_function
     _GPIO_ReadFromPin
     _LCD_SendDataString
       _LCD_SendDataByte
         _GPIO_WriteOnPin
         _GPIO_WriteOnPort
         _LCD_SetDisplayPosition
           _LCD_SendCommand
             _GPIO_WriteOnPin
             _GPIO_WriteOnPort
     _LCD_SetDisplayPosition
       _LCD_SendCommand
         _GPIO_WriteOnPin
         _GPIO_WriteOnPort
   _GPIO_Disable_ADC_On_Pins
   _GPIO_Disable_Comparator_On_PORTA
   _GPIO_Enable_Pull_Up_On_PortB
   _GPIO_SetPinDirection
   _GPIO_WriteOnPin
   _Heating_process_has_done_function
     _GPIO_WriteOnPin
     _Global_interrupt_disable
     _LCD_ClearScreen
       _LCD_SendCommand
         _GPIO_WriteOnPin
         _GPIO_WriteOnPort
     _LCD_SendDataString
       _LCD_SendDataByte
         _GPIO_WriteOnPin
         _GPIO_WriteOnPort
         _LCD_SetDisplayPosition
           _LCD_SendCommand
             _GPIO_WriteOnPin
             _GPIO_WriteOnPort
     _LCD_SetDisplayPosition
       _LCD_SendCommand
         _GPIO_WriteOnPin
         _GPIO_WriteOnPort
     _PWM_Stop
     _Timer0_disable
     _Timer0_disable_overflow_interrupt
   _Home_screen_display
     _LCD_ClearScreen
       _LCD_SendCommand
         _GPIO_WriteOnPin
         _GPIO_WriteOnPort
     _LCD_SendDataString
       _LCD_SendDataByte
         _GPIO_WriteOnPin
         _GPIO_WriteOnPort
         _LCD_SetDisplayPosition
           _LCD_SendCommand
             _GPIO_WriteOnPin
             _GPIO_WriteOnPort
     _LCD_SetDisplayPosition
       _LCD_SendCommand
         _GPIO_WriteOnPin
         _GPIO_WriteOnPort
   _If_heating_is_canceled_function
     _GPIO_WriteOnPin
     _Global_interrupt_disable
     _KeyPad_Initialization
       _GPIO_SetPinDirection
       _GPIO_WriteOnPin
     _KeyPad_getPressedKey
       _GPIO_ReadFromPin
       _GPIO_WriteOnPin
       _KeyPad_switch
     _LCD_SendDataString
       _LCD_SendDataByte
         _GPIO_WriteOnPin
         _GPIO_WriteOnPort
         _LCD_SetDisplayPosition
           _LCD_SendCommand
             _GPIO_WriteOnPin
             _GPIO_WriteOnPort
     _LCD_SetDisplayPosition
       _LCD_SendCommand
         _GPIO_WriteOnPin
         _GPIO_WriteOnPort
     _PWM_Stop
     _Timer0_disable
     _Timer0_disable_overflow_interrupt
   _LCD_ClearScreen
     _LCD_SendCommand
       _GPIO_WriteOnPin
       _GPIO_WriteOnPort
   _LCD_Initialization
     _GPIO_SetPinDirection
     _GPIO_WriteOnPin
     _GPIO_WriteOnPort
     _LCD_SendCommand
       _GPIO_WriteOnPin
       _GPIO_WriteOnPort
   _PWM_Frequency
     _Timer2_Initialization
     _Timer2_write_period_register
     ___lldiv
       ___lmul (ARG)
   _PWM_Initialization
   _Reset_to_idle_state
     _Door_sensor_function
       _GPIO_ReadFromPin
       _LCD_SendDataString
         _LCD_SendDataByte
           _GPIO_WriteOnPin
           _GPIO_WriteOnPort
           _LCD_SetDisplayPosition
             _LCD_SendCommand
               _GPIO_WriteOnPin
               _GPIO_WriteOnPort
       _LCD_SetDisplayPosition
         _LCD_SendCommand
           _GPIO_WriteOnPin
           _GPIO_WriteOnPort
     _GPIO_WriteOnPin
     _Home_screen_display
       _LCD_ClearScreen
         _LCD_SendCommand
           _GPIO_WriteOnPin
           _GPIO_WriteOnPort
       _LCD_SendDataString
         _LCD_SendDataByte
           _GPIO_WriteOnPin
           _GPIO_WriteOnPort
           _LCD_SetDisplayPosition
             _LCD_SendCommand
               _GPIO_WriteOnPin
               _GPIO_WriteOnPort
       _LCD_SetDisplayPosition
         _LCD_SendCommand
           _GPIO_WriteOnPin
           _GPIO_WriteOnPort
     _KeyPad_Initialization
       _GPIO_SetPinDirection
       _GPIO_WriteOnPin
     _KeyPad_getPressedKey
       _GPIO_ReadFromPin
       _GPIO_WriteOnPin
       _KeyPad_switch
     _LCD_ClearScreen
       _LCD_SendCommand
         _GPIO_WriteOnPin
         _GPIO_WriteOnPort
   _Set_and_Display_desired_temp
     _ADC_Read_value
     _ADC_Start_conversion
     _LCD_DisplaNumber
       _LCD_SendDataByte
         _GPIO_WriteOnPin
         _GPIO_WriteOnPort
         _LCD_SetDisplayPosition
           _LCD_SendCommand
             _GPIO_WriteOnPin
             _GPIO_WriteOnPort
       ___lldiv
         ___lmul (ARG)
       ___llmod
       ___lmul
     _LCD_SetDisplayPosition
       _LCD_SendCommand
         _GPIO_WriteOnPin
         _GPIO_WriteOnPort
     _PWM_DutyCycle
       _Timer2_enable
       ___lldiv
         ___lmul (ARG)
       ___lmul
     ___lwdiv
       _ADC_Read_value (ARG)
       ___wmul (ARG)
         _ADC_Read_value (ARG)
     ___wmul
       _ADC_Read_value (ARG)
   _Timer0_Initialization
   _Timer0_set_callback_function
   _User_insert_time_and_start_heating_function
     _GPIO_WriteOnPin
     _Global_interrupt_enable
     _Home_screen_display
       _LCD_ClearScreen
         _LCD_SendCommand
           _GPIO_WriteOnPin
           _GPIO_WriteOnPort
       _LCD_SendDataString
         _LCD_SendDataByte
           _GPIO_WriteOnPin
           _GPIO_WriteOnPort
           _LCD_SetDisplayPosition
             _LCD_SendCommand
               _GPIO_WriteOnPin
               _GPIO_WriteOnPort
       _LCD_SetDisplayPosition
         _LCD_SendCommand
           _GPIO_WriteOnPin
           _GPIO_WriteOnPort
     _KeyPad_Initialization
       _GPIO_SetPinDirection
       _GPIO_WriteOnPin
     _KeyPad_getPressedKey
       _GPIO_ReadFromPin
       _GPIO_WriteOnPin
       _KeyPad_switch
     _LCD_ClearScreen
       _LCD_SendCommand
         _GPIO_WriteOnPin
         _GPIO_WriteOnPort
     _LCD_DisplaNumber
       _LCD_SendDataByte
         _GPIO_WriteOnPin
         _GPIO_WriteOnPort
         _LCD_SetDisplayPosition
           _LCD_SendCommand
             _GPIO_WriteOnPin
             _GPIO_WriteOnPort
       ___lldiv
         ___lmul (ARG)
       ___llmod
       ___lmul
     _LCD_SendDataByte
       _GPIO_WriteOnPin
       _GPIO_WriteOnPort
       _LCD_SetDisplayPosition
         _LCD_SendCommand
           _GPIO_WriteOnPin
           _GPIO_WriteOnPort
     _LCD_SendDataString
       _LCD_SendDataByte
         _GPIO_WriteOnPin
         _GPIO_WriteOnPort
         _LCD_SetDisplayPosition
           _LCD_SendCommand
             _GPIO_WriteOnPin
             _GPIO_WriteOnPort
     _LCD_SetDisplayPosition
       _LCD_SendCommand
         _GPIO_WriteOnPin
         _GPIO_WriteOnPort
     _PWM_Start
     _Timer0_enable
     _Timer0_enable_overflow_interrupt
     ___lwdiv
       _ADC_Read_value (ARG)
       ___wmul (ARG)
         _ADC_Read_value (ARG)
     ___lwmod
       ___lwdiv (ARG)
         _ADC_Read_value (ARG)
         ___wmul (ARG)
           _ADC_Read_value (ARG)
     ___wmul
       _ADC_Read_value (ARG)
   _Weight_sensor_function
     _GPIO_ReadFromPin
     _LCD_SendDataString
       _LCD_SendDataByte
         _GPIO_WriteOnPin
         _GPIO_WriteOnPort
         _LCD_SetDisplayPosition
           _LCD_SendCommand
             _GPIO_WriteOnPin
             _GPIO_WriteOnPort
     _LCD_SetDisplayPosition
       _LCD_SendCommand
         _GPIO_WriteOnPin
         _GPIO_WriteOnPort
   _Welcome_screen_display
     _LCD_SendDataString
       _LCD_SendDataByte
         _GPIO_WriteOnPin
         _GPIO_WriteOnPort
         _LCD_SetDisplayPosition
           _LCD_SendCommand
             _GPIO_WriteOnPin
             _GPIO_WriteOnPort
     _LCD_SetDisplayPosition
       _LCD_SendCommand
         _GPIO_WriteOnPin
         _GPIO_WriteOnPort

 _ISR (ROOT)
   Absolute function(Fake) *
   _TIMER0_ISR *
     _Timer0_write_counter

 Address spaces:
Name               Size   Autos  Total    Cost      Usage
BIGRAM             5FF      0       0      17        0.0%
EEDATA             100      0       0       0        0.0%
BITBANK5           100      0       0      16        0.0%
BANK5              100      0       0      14        0.0%
BITBANK4           100      0       0      12        0.0%
BANK4              100      0       0      13        0.0%
BITBANK3           100      0       0      10        0.0%
BANK3              100      0       0      11        0.0%
BITBANK2           100      0       0       8        0.0%
BANK2              100      0       0       9        0.0%
BITBANK1           100      0       0       6        0.0%
BANK1              100      0       0       7        0.0%
BITBANK0            80      0       0       4        0.0%
BANK0               80      0       0       5        0.0%
BITCOMRAM           7E      0       0       0        0.0%
COMRAM              7E     39      56       1       68.3%
BITSFR               0      0       0     200        0.0%
SFR                  0      0       0     200        0.0%
STACK                0      0       0       2        0.0%
NULL                 0      0       0       0        0.0%
ABS                  0      0      56      15        0.0%
DATA                 0      0      56       3        0.0%
CODE                 0      0       0       0        0.0%


Microchip Technology PIC18 Macro Assembler V2.10 build 88905656 
Symbol Table                                                                                   Wed Mar 04 10:56:45 2020

                                      _Display_remind_time$1547 0020  
                                       __size_of_Timer0_disable 0004  
                    Heating_process_has_done_function@u8counter 003E  
                                        __size_of_PWM_DutyCycle 00EA  
                                ??_Timer2_write_period_register 0006  
                                                            l22 2A46  
                                                            l25 2A62  
                                                            l33 259E  
                                                            l19 1ADE  
                                                            l36 2AA8  
                                                            l94 0D32  
                                       GPIO_ReadFromPin@a_u8pin 0006  
                                           ___wmul@multiplicand 0010  
                                                   __CFG_BORV$3 000000  
                                                  __CFG_CP0$OFF 000000  
                                        GPIO_ReadFromPin@retVal 000A  
                                                  __CFG_CP1$OFF 000000  
                                                  __CFG_CP2$OFF 000000  
                                                  __CFG_CP3$OFF 000000  
                                      __size_of_GPIO_WriteOnPin 0288  
                                                   __CFG_LVP$ON 000000  
                                          ?_Home_screen_display 0001  
                                 __size_of_Timer0_write_counter 0022  
                                                           l320 2930  
                                                           l234 2A94  
                                                           l403 287A  
                                                           l332 2006  
                                                           l500 1994  
                                                           l166 0FBA  
                                                           l414 228A  
                                                           l440 2A7C  
                                                           l177 23A4  
                                                           l265 15EE  
                                                           l282 2A86  
                                                           l427 1196  
                                                           l268 2AB8  
                                                           l188 1BD6  
                                                           l276 2A98  
                                                           l612 08AC  
                                                           l701 1C78  
                                                           l285 2AA0  
                                                           l613 072E  
                                                           l366 1496  
                                                           l614 0774  
                                                           l606 21F2  
                                                           l279 2AAC  
                                                           l631 252A  
                                                           l383 1DAA  
                                                           l711 1CC0  
                                                           l392 17C4  
                                                           l288 2AB4  
                                                           l386 1F4A  
                                                           l650 281C  
                                                           l730 26EE  
                                                           l618 07FE  
                                                           l627 0A98  
                                                           l644 173C  
                                                           l804 2154  
                                                           l660 20B0  
                                                           l397 1888  
                                                           l733 2A9C  
                                                           l653 2684  
                                                           l736 2AB0  
                                                           l752 2AA4  
                                                           l770 29BC  
                                                           l682 29FE  
                                                           l579 1E84  
                                                           l587 24AE  
                                                           l596 2318  
                                                           l749 2A54  
                                                           l677 2A1E  
                                                           l781 2748  
                                                           l782 2758  
                                                           l767 2A8E  
                                                           l689 2996  
                                                           l698 1326  
                                                           l797 2144  
                                                  __CFG_CPB$OFF 000000  
                                                  __CFG_CPD$OFF 000000  
                                                           _ISR 0008  
                                      GPIO_ReadFromPin@a_u8port 0009  
                                    __end_of_PWM_Initialization 2A20  
                                                           tosl 000FFD  
                                                           wreg 000FE8  
                               PWM_Frequency@a_u32PWM_frequency 001F  
                                                          ?_ISR 0001  
                                                  __CFG_WDT$OFF 000000  
                                                          l1261 260A  
                                                          l1190 241C  
                                                          l1271 27B4  
                                                          l3121 0D36  
                                                          l4001 157C  
                                                          l3203 0F46  
                                                          l3131 0D7A  
                                                          l3123 0D3A  
                                                          l1268 2612  
                                                          l3205 0F56  
                                                          l3141 0DB0  
                                                          l3133 0D8A  
                                                          l3125 0D4A  
                                                          l3301 1740  
                                                          l4013 158A  
                                                          l4005 1584  
                                                          l1197 242C  
                                                          l4101 2696  
                                                          l1278 27BC  
                                                          l3151 0E00  
                                                          l3143 0DC0  
                                                          l3127 0D5A  
                                                          l3231 2330  
                                                          l3223 231C  
                                                          l3311 1792  
                                                          l3303 1752  
                                                          l4111 26B6  
                                                          l4103 269C  
                                                          l3161 0E32  
                                                          l3145 0DD0  
                                                          l3129 0D76  
                                                          l3137 0DAC  
                                                          l3217 0F78  
                                                          l3241 2350  
                                                          l3233 2338  
                                                          l3225 2320  
                                                          l3321 1806  
                                                          l3313 17A0  
                                                          l3305 1760  
                                                          l3401 0C1A  
                                                          l4041 1CC2  
                                                          l4121 26EC  
                                                          l4113 26C6  
                                                          l4105 269E  
                                                          l4201 077C  
                                                          l3163 0E42  
                                                          l3243 235E  
                                                          l3235 233C  
                                                          l3227 2324  
                                                          l3331 184E  
                                                          l3323 180E  
                                                          l3315 17B2  
                                                          l3307 1772  
                                                          l4019 15BC  
                                                          l4051 1D8C  
                                                          l4043 1D66  
                                                          l4115 26C8  
                                                          l4107 26AE  
                                                          l4211 07CA  
                                                          l4203 0782  
                                                          l4131 264A  
                                                          l4123 2614  
                                                          l3181 0EB4  
                                                          l3149 0DF0  
                                                          l3237 2344  
                                                          l3229 232C  
                                                          l3261 1EF6  
                                                          l3253 1E88  
                                                          l3333 185A  
                                                          l3325 1824  
                                                          l3317 17B6  
                                                          l3309 1780  
                                                          l4037 2AB6  
                                                          l3405 0C3A  
                                                          l3341 0A9C  
                                                          l3501 1410  
                                                          l4053 1D92  
                                                          l4045 1D6E  
                                                          l4061 2A02  
                                                          l4141 2460  
                                                          l4117 26CE  
                                                          l4109 26B4  
                                                          l4301 0A90  
                                                          l4221 0812  
                                                          l4213 07DC  
                                                          l4205 0784  
                                                          l4133 2660  
                                                          l4125 261E  
                                                          l3167 0E62  
                                                          l3159 0E22  
                                                          l3239 2348  
                                                          l3247 2362  
                                                          l3271 1F42  
                                                          l3263 1F04  
                                                          l3255 1ECA  
                                                          l3335 1868  
                                                          l3327 1832  
                                                          l3319 17C4  
                                                          l4311 1DC0  
                                                          l3423 0CAC  
                                                          l3415 0C6C  
                                                          l3407 0C4A  
                                                          l3351 0AE0  
                                                          l3343 0AA0  
                                                          l3503 1418  
                                                          l4055 1D94  
                                                          l4047 1D84  
                                                          l4071 1198  
                                                          l4063 2A06  
                                                          l4143 2472  
                                                          l4119 26E0  
                                                          l4039 2A7E  
                                                          l4223 081C  
                                                          l4215 07EE  
                                                          l4207 078E  
                                                          l4231 08B0  
                                                          l4151 2156  
                                                          l4135 266C  
                                                          l4127 262A  
                                                          l3185 0ED4  
                                                          l3177 0E94  
                                                          l3169 0E72  
                                                          l3265 1F12  
                                                          l3257 1ED2  
                                                          l3281 221A  
                                                          l3273 21F6  
                                                          l3337 187E  
                                                          l3329 1840  
                                                          l4321 1E4C  
                                                          l4313 1DCA  
                                                          l3425 0CBC  
                                                          l3417 0C7C  
                                                          l3361 0B16  
                                                          l3353 0AF0  
                                                          l3345 0AB0  
                                                          l3505 1420  
                                                          l3513 145A  
                                                          l4057 1D9A  
                                                          l4049 1D8A  
                                                          l4081 1290  
                                                          l4073 11F4  
                                                          l4065 2A16  
                                                          l4401 27C6  
                                                          l3601 252C  
                                                          l4145 2482  
                                                          l4137 242E  
                                                          l4241 08FC  
                                                          l4233 08C2  
                                                          l4225 0828  
                                                          l4217 080A  
                                                          l4209 079A  
                                                          l4161 21BA  
                                                          l4153 2166  
                                                          l4129 2640  
                                                          l3195 0F06  
                                                          l3187 0EE4  
                                                          l3179 0EA4  
                                                          l3267 1F1E  
                                                          l3259 1EE8  
                                                          l3291 2246  
                                                          l3283 2222  
                                                          l3339 1886  
                                                          l4323 1E68  
                                                          l4315 1DE6  
                                                          l4307 1DAC  
                                                          l3427 0CCE  
                                                          l3419 0C8C  
                                                          l3371 0B66  
                                                          l3363 0B26  
                                                          l3347 0AC0  
                                                          l3451 1B2C  
                                                          l3515 1494  
                                                          l4331 24D0  
                                                          l4059 1DA6  
                                                          l4091 12F4  
                                                          l4083 12B4  
                                                          l4075 1272  
                                                          l4067 2A1C  
                                                          l4411 2804  
                                                          l4403 27DA  
                                                          l3611 2596  
                                                          l3603 252C  
                                                          l4147 248C  
                                                          l4139 2432  
                                                          l4251 0962  
                                                          l4243 0900  
                                                          l4235 08D4  
                                                          l4219 0810  
                                                          l4171 21E6  
                                                          l4163 21BE  
                                                          l4155 2180  
                                                          l3197 0F16  
                                                          l3269 1F2C  
                                                          l3285 222C  
                                                          l3277 220A  
                                                          l4317 1E16  
                                                          l4309 1DBC  
                                                          l3541 2822  
                                                          l3381 0B98  
                                                          l3365 0B36  
                                                          l3349 0ADC  
                                                          l3357 0B12  
                                                          l3453 1B4E  
                                                          l3461 1BD4  
                                                          l3445 1AE2  
                                                          l3509 1428  
                                                          l4341 24F8  
                                                          l4333 24DE  
                                                          l4325 24B0  
                                                          l4093 12F8  
                                                          l4085 12C0  
                                                          l4077 1282  
                                                          l4421 2818  
                                                          l4413 2808  
                                                          l4405 27EA  
                                                          l3605 2542  
                                                          l3701 0FFA  
                                                          l4149 24AA  
                                                          l3621 2A9E  
                                                          l4261 09DA  
                                                          l4253 0968  
                                                          l4245 090C  
                                                          l4237 08E4  
                                                          l4181 070C  
                                                          l4229 0872  
                                                          l4173 06E8  
                                                          l4165 21C8  
                                                          l4157 2190  
                                                          l4501 1956  
                                                          l3199 0F26  
                                                          l3287 2234  
                                                          l3279 2212  
                                                          l3295 2250  
                                                          l4319 1E1C  
                                                          l3623 2AB2  
                                                          l3543 2846  
                                                          l4351 15F0  
                                                          l3383 0BA8  
                                                          l3439 0CF0  
                                                          l3631 28DE  
                                                          l3455 1B70  
                                                          l3447 1AE8  
                                                          l3471 1332  
                                                          l4343 24FE  
                                                          l4335 24EC  
                                                          l4327 24BA  
                                                          l4087 12C4  
                                                          l4095 1316  
                                                          l4079 1286  
                                                          l4415 280C  
                                                          l4407 27EE  
                                                          l3607 2558  
                                                          l3615 2AA6  
                                                          l3711 105C  
                                                          l3703 1000  
                                                          l3551 2AA2  
                                                          l4271 0A24  
                                                          l4263 09E6  
                                                          l4255 0998  
                                                          l4247 0916  
                                                          l4239 08F4  
                                                          l4191 0738  
                                                          l4183 070E  
                                                          l4175 06F2  
                                                          l4167 21D8  
                                                          l4159 21AA  
                                                          l4511 197C  
                                                          l4503 195E  
                                                          l3289 223E  
                                                          l3545 284A  
                                                          l4361 163E  
                                                          l4353 1620  
                                                          l3369 0B56  
                                                          l3633 28FA  
                                                          l3625 28DA  
                                                          l3449 1B0A  
                                                          l4601 13F2  
                                                          l3481 137C  
                                                          l3473 133A  
                                                          l4345 2508  
                                                          l4337 24F0  
                                                          l4329 24CC  
                                                          l4089 12E2  
                                                          l4097 131E  
                                                          l4417 2810  
                                                          l4409 27FC  
                                                          l3609 2568  
                                                          l3561 2728  
                                                          l3553 26F0  
                                                          l3721 10B2  
                                                          l3713 105E  
                                                          l3705 1004  
                                                          l3801 1C8C  
                                                          l3617 2A96  
                                                          l4281 0A56  
                                                          l4273 0A30  
                                                          l4265 09F0  
                                                          l4257 09B4  
                                                          l4249 0932  
                                                          l4193 073A  
                                                          l4185 0718  
                                                          l4169 21DC  
                                                          l4513 1980  
                                                          l4505 1962  
                                                          l4611 14DE  
                                                          l3547 2A72  
                                                          l3539 281E  
                                                          l3619 2AAA  
                                                          l4371 1696  
                                                          l4363 1648  
                                                          l4355 1624  
                                                          l3387 0BC8  
                                                          l3379 0B88  
                                                          l3643 2910  
                                                          l3635 28FC  
                                                          l3459 1B92  
                                                          l4603 143C  
                                                          l3491 13C6  
                                                          l3483 1384  
                                                          l3475 1342  
                                                          l4347 2514  
                                                          l4339 24F4  
                                                          l3571 20EC  
                                                          l3563 20B2  
                                                          l3731 200C  
                                                          l4419 2814  
                                                          l3555 2700  
                                                          l3723 10F0  
                                                          l3715 1074  
                                                          l3707 1014  
                                                          l3803 1C8E  
                                                          l3811 1CBC  
                                                          l4099 2686  
                                                          l4291 0A7C  
                                                          l4283 0A5A  
                                                          l4275 0A36  
                                                          l4267 0A0E  
                                                          l4259 09D0  
                                                          l4195 0744  
                                                          l4187 0724  
                                                          l4179 0706  
                                                          l4515 1988  
                                                          l4507 1966  
                                                          l3901 1A12  
                                                          l4621 2376  
                                                          l4613 1546  
                                                          l3549 2A78  
                                                          l3821 2AAE  
                                                          l4381 16DA  
                                                          l4373 16A2  
                                                          l4365 1654  
                                                          l4357 1628  
                                                          l3397 0BFA  
                                                          l3389 0BD8  
                                                          l3645 291E  
                                                          l3637 290C  
                                                          l4605 146E  
                                                          l3493 13CE  
                                                          l3485 138C  
                                                          l3469 132A  
                                                          l4349 251E  
                                                          l3581 2134  
                                                          l3573 20FA  
                                                          l3565 20C2  
                                                          l3741 205E  
                                                          l3733 2018  
                                                          l3557 270E  
                                                          l3725 1184  
                                                          l3717 107C  
                                                          l3709 1028  
                                                          l3805 1C9C  
                                                          l3813 29E2  
                                                          l4293 0A80  
                                                          l4277 0A44  
                                                          l4269 0A18  
                                                          l4285 0A62  
                                                          l4197 074A  
                                                          l4189 0732  
                                                          l4509 196A  
                                                          l4461 189C  
                                                          l3911 1A2E  
                                                          l3903 1A16  
                                                          l4623 0F8C  
                                                          l4615 159E  
                                                          l3823 296E  
                                                          l4391 171E  
                                                          l4383 16EC  
                                                          l4375 16B8  
                                                          l4367 1676  
                                                          l4359 162C  
                                                          l3399 0C0A  
                                                          l3647 2920  
                                                          l4607 1BA6  
                                                          l3495 13D6  
                                                          l3479 134A  
                                                          l3671 1FAA  
                                                          l3663 1F66  
                                                          l3655 1F54  
                                                          l3831 2A8A  
                                                          l3583 213E  
                                                          l3575 2104  
                                                          l3567 20D8  
                                                          l3751 20A4  
                                                          l3743 206E  
                                                          l3735 202E  
                                                          l3591 23D0  
                                                          l3559 271E  
                                                          l3727 1186  
                                                          l3719 10B0  
                                                          l3807 1CA2  
                                                          l3815 29F2  
                                                          l4295 0A84  
                                                          l4287 0A74  
                                                          l4279 0A52  
                                                          l4199 0750  
                                                          l4519 1994  
                                                          l4471 18E2  
                                                          l4463 18AA  
                                                          l4625 1A70  
                                                          l3921 1A4A  
                                                          l3913 1A32  
                                                          l3905 1A1C  
                                                          l3841 25A0  
                                                          l4617 15D0  
                                                          l3825 297E  
                                                          l4393 1722  
                                                          l4385 1700  
                                                          l4369 1680  
                                                          l4377 16C0  
                                                          l4609 0D04  
                                                          l3489 1394  
                                                          l3681 1FE4  
                                                          l3673 1FC4  
                                                          l3665 1F80  
                                                          l3657 1F62  
                                                          l3649 1F4C  
                                                          l3833 2A48  
                                                          l3577 2122  
                                                          l3569 20E0  
                                                          l3761 22E0  
                                                          l3753 228C  
                                                          l3745 207A  
                                                          l3737 2038  
                                                          l3729 2008  
                                                          l3593 23DE  
                                                          l3585 23A6  
                                                          l3809 1CA4  
                                                          l3817 29FA  
                                                          l4297 0A88  
                                                          l4289 0A78  
                                                          l4481 191C  
                                                          l4473 18F0  
                                                          l4465 18B8  
                                                          l4457 188A  
                                                          l3923 1A4E  
                                                          l3915 1A38  
                                                          l3907 1A24  
                                                          l4619 2264  
                                                          l3851 25D8  
                                                          l3843 25A8  
                                                          l3827 298C  
                                                          l4395 1734  
                                                          l4379 16D6  
                                                          l3499 13DE  
                                                          l3683 1FF2  
                                                          l3667 1F90  
                                                          l3579 2132  
                                                          l3771 230C  
                                                          l3763 22E4  
                                                          l3755 22A6  
                                                          l3747 2084  
                                                          l3739 204E  
                                                          l3595 23FC  
                                                          l3587 23BC  
                                                          l3691 0FBC  
                                                          l3835 2998  
                                                          l3819 2A9A  
                                                          l4299 0A8C  
                                                          l4491 193E  
                                                          l4483 1922  
                                                          l4475 18FE  
                                                          l4467 18C6  
                                                          l4459 1898  
                                                          l3925 1A54  
                                                          l3917 1A3C  
                                                          l3909 1A28  
                                                          l3861 2604  
                                                          l3853 25DE  
                                                          l3845 25BA  
                                                          l3941 2A90  
                                                          l4389 1708  
                                                          l3685 1FF4  
                                                          l3677 1FD2  
                                                          l3765 22EE  
                                                          l3757 22B6  
                                                          l3749 2094  
                                                          l4397 27BE  
                                                          l3597 240C  
                                                          l3589 23C4  
                                                          l3693 0FD2  
                                                          l3781 1BDA  
                                                          l3837 29B4  
                                                          l4493 1942  
                                                          l4485 1928  
                                                          l4477 1902  
                                                          l4469 18D4  
                                                          l3919 1A42  
                                                          l3935 2A3A  
                                                          l3855 25F4  
                                                          l3847 25C2  
                                                          l3871 278A  
                                                          l3863 275A  
                                                          l3943 149A  
                                                          l3687 2004  
                                                          l3679 1FD4  
                                                          l3767 22FE  
                                                          l3759 22D0  
                                                          l4399 27C2  
                                                          l3599 2416  
                                                          l3791 1C46  
                                                          l3783 1C20  
                                                          l4495 194A  
                                                          l4487 192E  
                                                          l4479 1908  
                                                          l3881 19E0  
                                                          l3929 1A5C  
                                                          l3937 2A58  
                                                          l3857 25FC  
                                                          l3849 25CA  
                                                          l3873 27A0  
                                                          l3865 276C  
                                                          l3961 14BE  
                                                          l3953 14AE  
                                                          l3945 149E  
                                                          l3769 2302  
                                                          l3697 0FDC  
                                                          l3793 1C54  
                                                          l3785 1C30  
                                                          l4593 19A8  
                                                          l4497 194E  
                                                          l4489 1932  
                                                          l3891 19F8  
                                                          l3883 19E4  
                                                          l3939 2A60  
                                                          l3859 25FE  
                                                          l3875 27A8  
                                                          l3867 2774  
                                                          l3971 150C  
                                                          l3947 14A2  
                                                          l3699 0FEA  
                                                          l3795 1C5A  
                                                          l3787 1C3E  
                                                          l4595 0886  
                                                          l4499 1952  
                                                          l3893 19FE  
                                                          l3885 19EA  
                                                          l3877 27AE  
                                                          l3869 277C  
                                                          l3965 14C6  
                                                          l3957 14B6  
                                                          l3949 14A6  
                                                          l4597 135E  
                                                          l3797 1C5C  
                                                          l3789 1C44  
                                                          l3895 1A02  
                                                          l3887 19EE  
                                                          l3879 19CC  
                                                          l3983 1524  
                                                          l3975 1514  
                                                          l4599 13A8  
                                                          l3799 1C86  
                                                          l3897 1A08  
                                                          l3889 19F4  
                                                          l3969 14CA  
                                                          l3899 1A0C  
                                                          l3995 1532  
                                                          l3987 152C  
                                                          l3979 151C  
                                                          l3997 1574  
                                                          STR_1 063E  
                                                          STR_2 064F  
                                                          STR_3 0660  
                                                          STR_4 0671  
                                                          STR_5 06CD  
                                                          STR_6 0688  
                                                          STR_7 0601  
                                                          STR_8 0678  
                                                          STR_9 0645  
                                                          u2000 1752  
                                                          u2001 174E  
                                                          u2010 1772  
                                                          u2011 176E  
                                                          u2020 1792  
                                                          u2100 0B36  
                                                          u2021 178E  
                                                          u2101 0B32  
                                                          u2030 17B2  
                                                          u2031 17AE  
                                                          u2200 0C1A  
                                                          u2120 0B66  
                                                          u2040 0AB0  
                                                          u3000 07FE  
                                                          u2201 0C16  
                                                          u2121 0B62  
                                                          u2041 0AAC  
                                                          u3001 07FA  
                                                          u2114 0B48  
                                                          u2050 0AC0  
                                                          u3010 08C2  
                                                          u2115 0B44  
                                                          u2051 0ABC  
                                                          u3011 08BE  
                                                          u3100 1700  
                                                          u2220 0C4A  
                                                          u2140 0B98  
                                                          u3020 08D4  
                                                          u3101 16FC  
                                                          u2221 0C46  
                                                          u2141 0B94  
                                                          u3021 08D0  
                                                          u3110 171E  
                                                          u2214 0C2C  
                                                          u2150 0BA8  
                                                          u2134 0B78  
                                                          u2070 0AF0  
                                                          u3030 08E4  
                                                          u3111 171A  
                                                          u2215 0C28  
                                                          u2151 0BA4  
                                                          u2135 0B74  
                                                          u2071 0AEC  
                                                          u3031 08E0  
                                                          u2240 0C7C  
                                                          u2064 0AD2  
                                                          u2304 1AFA  
                                                          u2400 20D8  
                                                          u3120 27DA  
                                                          u3040 08F4  
                                                          u2241 0C78  
                                                          u2065 0ACE  
                                                          u2305 1AF6  
                                                          u2401 20D4  
                                                          u3121 27D6  
                                                          u3041 08F0  
                                                          u2250 0C8C  
                                                          u2234 0C5C  
                                                          u2170 0BD8  
                                                          u2090 0B26  
                                                          u2314 1B1C  
                                                          u2410 20FA  
                                                          u3130 27EA  
                                                          u3050 0A74  
                                                          u2251 0C88  
                                                          u2235 0C58  
                                                          u2171 0BD4  
                                                          u2091 0B22  
                                                          u2315 1B18  
                                                          u2411 20F6  
                                                          u3131 27E6  
                                                          u3051 0A70  
                                                          u3060 1DBC  
                                                          u2164 0BBA  
                                                          u2084 0B02  
                                                          u2500 290C  
                                                          u2324 1B3E  
                                                          u2420 2122  
                                                          u3061 1DB8  
                                                          u2165 0BB6  
                                                          u2085 0AFE  
                                                          u2501 2908  
                                                          u2325 1B3A  
                                                          u2421 211E  
                                                          u2350 2842  
                                                          u2270 0CBC  
                                                          u2190 0C0A  
                                                          u2510 2930  
                                                          u2334 1B60  
                                                          u3070 24CC  
                                                          u2430 23BC  
                                                          u2271 0CB8  
                                                          u2191 0C06  
                                                          u2511 292C  
                                                          u2335 1B5C  
                                                          u3071 24C8  
                                                          u2431 23B8  
                                                          u3207 2676  
                                                          u1800 0DD0  
                                                          u2360 286A  
                                                          u3080 163E  
                                                          u2280 0CCE  
                                                          u2264 0C9E  
                                                          u2184 0BEA  
                                                          u2344 1B82  
                                                          u2520 1F80  
                                                          u2440 23DE  
                                                          u2600 10EC  
                                                          u1801 0DCC  
                                                          u3081 163A  
                                                          u2281 0CCA  
                                                          u2265 0C9A  
                                                          u2185 0BE6  
                                                          u2345 1B7E  
                                                          u2521 1F7C  
                                                          u2441 23DA  
                                                          u2601 10E8  
                                                          u3217 2186  
                                                          u2370 287A  
                                                          u3090 16D6  
                                                          u2530 1FAA  
                                                          u2450 23FC  
                                                          u2610 1196  
                                                          u3307 1880  
                                                          u2371 2876  
                                                          u3091 16D2  
                                                          u2531 1FA6  
                                                          u3227 22AC  
                                                          u2451 23F8  
                                                          u2611 1192  
                                                          u1900 0EB4  
                                                          u1820 0E00  
                                                          u1740 0D4A  
                                                          u2540 1FC4  
                                                          u2620 205E  
                                                          u2460 2542  
                                                          u2380 270E  
                                                          u2700 1C54  
                                                          u1901 0EB0  
                                                          u1821 0DFC  
                                                          u1741 0D46  
                                                          u3317 1ECC  
                                                          u2357 2838  
                                                          u2541 1FC0  
                                                          u3237 1D68  
                                                          u2621 205A  
                                                          u2461 253E  
                                                          u2381 270A  
                                                          u2701 1C50  
                                                          u1814 0DE2  
                                                          u1750 0D5A  
                                                          u2294 0CE0  
                                                          u2550 1FE4  
                                                          u2630 2094  
                                                          u2390 2748  
                                                          u2710 1C86  
                                                          u3190 197C  
                                                          u1815 0DDE  
                                                          u1751 0D56  
                                                          u3327 1EE2  
                                                          u2367 2860  
                                                          u2295 0CDC  
                                                          u2551 1FE0  
                                                          u3247 1D7E  
                                                          u2631 2090  
                                                          u2391 2744  
                                                          u2711 1C82  
                                                          u3191 1978  
                                                          u1920 0EE4  
                                                          u1840 0E32  
                                                          u2800 27A0  
                                                          u2560 2004  
                                                          u2640 22A6  
                                                          u2480 2558  
                                                          u2720 1C9C  
                                                          u1921 0EE0  
                                                          u1841 0E2E  
                                                          u3337 1F2E  
                                                          u2801 279C  
                                                          u2561 2000  
                                                          u3257 1D9C  
                                                          u2641 22A2  
                                                          u2481 2554  
                                                          u2721 1C98  
                                                          u1914 0EC6  
                                                          u1850 0E42  
                                                          u1834 0E12  
                                                          u1770 0D8A  
                                                          u2810 2A16  
                                                          u2650 22D0  
                                                          u2570 0FD2  
                                                          u2730 29F2  
                                                          u1915 0EC2  
                                                          u1851 0E3E  
                                                          u1835 0E0E  
                                                          u1771 0D86  
                                                          u3347 1F44  
                                                          u3267 1F86  
                                                          u2811 2A12  
                                                          u2651 22CC  
                                                          u2475 254A  
                                                          u2571 0FCE  
                                                          u2731 29EE  
                                                          u1940 0F16  
                                                          u1764 0D6C  
                                                          u2740 297E  
                                                          u2660 22E0  
                                                          u2580 0FEA  
                                                          u2900 26C6  
                                                          u1941 0F12  
                                                          u1765 0D68  
                                                          u3277 1808  
                                                          u2741 297A  
                                                          u2661 22DC  
                                                          u2581 0FE6  
                                                          u2901 26C2  
                                                          u1950 0F26  
                                                          u1934 0EF6  
                                                          u1870 0E72  
                                                          u1790 0DC0  
                                                          u2750 25BA  
                                                          u2830 11F4  
                                                          u2590 1074  
                                                          u2910 26E0  
                                                          u1951 0F22  
                                                          u1935 0EF2  
                                                          u1871 0E6E  
                                                          u1791 0DBC  
                                                          u3287 181E  
                                                          u2751 25B6  
                                                          u2831 11F0  
                                                          u2495 2570  
                                                          u2591 1070  
                                                          u2911 26DC  
                                                          u1864 0E54  
                                                          u1784 0D9C  
                                                          u2760 25D8  
                                                          u2680 1C30  
                                                          u2920 2472  
                                                          u1865 0E50  
                                                          u1785 0D98  
                                                          u3297 186A  
                                                          u2761 25D4  
                                                          u2825 11BA  
                                                          u2681 1C2C  
                                                          u2921 246E  
                                                          u1970 0F56  
                                                          u1890 0EA4  
                                                          u2770 25F4  
                                                          u2850 1282  
                                                          u2690 1C3E  
                                                          u2930 2166  
                                                          u1971 0F52  
                                                          u1891 0EA0  
                                                          u2771 25F0  
                                                          u2851 127E  
                                                          u2691 1C3A  
                                                          u2931 2162  
                                                          u1964 0F38  
                                                          u1884 0E84  
                                                          u2780 276C  
                                                          u2860 12B4  
                                                          u2940 2180  
                                                          u1965 0F34  
                                                          u1885 0E80  
                                                          u2781 2768  
                                                          u2861 12B0  
                                                          u2845 1216  
                                                          u2941 217C  
                                                          u1990 2206  
                                                          u2790 278A  
                                                          u2950 21AA  
                                                          u1991 2202  
                                                          u2791 2786  
                                                          u2951 21A6  
                                                          u1984 0F68  
                                                          u2880 2696  
                                                          u2960 21BA  
                                                          u1985 0F64  
                                                          u2881 2692  
                                                          u2961 21B6  
                                                          u2890 26AE  
                                                          u2970 0702  
                                                          u2875 1304  
                                                          u2891 26AA  
                                                          u2971 06FE  
                                                          u2980 07DC  
                                                          u2981 07D8  
                                                          u2990 07EE  
                                                          u2991 07EA  
                                  __size_of_Display_remind_time 00DA  
                              KeyPad_getPressedKey@u8rowCounter 000E  
                                                          _main 188A  
                                                          fsr0h 000FEA  
                                                          indf0 000FEF  
                                                          fsr0l 000FE9  
                                                          fsr1l 000FE1  
                                                          btemp 0057  
                              __size_of_Global_interrupt_enable 0004  
                                             ?_GPIO_ReadFromPin 0006  
                                                          prodh 000FF4  
                                                          prodl 000FF3  
                                                          start 000E  
                                               _LCD_SendCommand 1E86  
                                                 __CFG_IESO$OFF 000000  
                                      __end_of_GPIO_WriteOnPort 23A6  
                                   GPIO_SetPinDirection@a_u8pin 0006  
                                        GPIO_WriteOnPin@a_u8pin 0006  
                                            ??_GPIO_ReadFromPin 0007  
                                      __end_of_LCD_DisplaNumber 1198  
                                                  ___param_bank 000000  
                                                         ??_ISR 0003  
Timer2_write_period_register@a_u8init_value_for_period_register 0006  
                                          _g_u8old_temp_reading 004E  
                                                   ?_TIMER0_ISR 0001  
                                            _g_u16MicrowaveTime 0040  
                                         ??_Home_screen_display 0014  
                                                         ?_main 0001  
                                                         STR_10 0656  
                                                         STR_11 06CD  
                                                         STR_12 06D4  
                                                         STR_20 06C3  
                                                         STR_21 06DA  
                                                         STR_13 0623  
                                                         STR_22 06E0  
                                                         STR_14 0695  
                                                         STR_23 0688  
                                                         STR_15 06A2  
                                                         STR_16 06D4  
                                                         STR_24 0645  
                                                         STR_17 06AE  
                                                         STR_25 0634  
                                                         STR_26 0667  
                                                         STR_18 0612  
                                                         STR_27 0656  
                                                         STR_19 06B9  
                                               __end_of___lldiv 2156  
                                               __end_of___llmod 242E  
                                              ?_LCD_ClearScreen 0001  
                                               __end_of___lwdiv 2614  
                                               __end_of___lwmod 27BE  
                                                         i2l303 28CE  
                                                         i2l582 2A36  
                                                         i2l746 29DE  
                          __end_of_GPIO_Enable_Pull_Up_On_PortB 2ABA  
                         __size_of_GPIO_Enable_Pull_Up_On_PortB 0004  
                                  _GPIO_Enable_Pull_Up_On_PortB 2AB6  
                                      ??_Welcome_screen_display 0014  
                                                 __CFG_PWRT$OFF 000000  
                                                 __CFG_WRT0$OFF 000000  
                                                 __CFG_WRT1$OFF 000000  
                                                 __CFG_WRT2$OFF 000000  
                                                 _PWM_Frequency 1198  
                                           ___lmul@multiplicand 000A  
                                                 __CFG_WRT3$OFF 000000  
                                           _Reset_to_idle_state 27BE  
                              __end_of_GPIO_Disable_ADC_On_Pins 15F0  
                                                __CFG_EBTR0$OFF 000000  
                                                __CFG_FCMEN$OFF 000000  
                                                __CFG_EBTR1$OFF 000000  
                                                __CFG_EBTR2$OFF 000000  
                                                __CFG_EBTR3$OFF 000000  
                                                 __CFG_WRTB$OFF 000000  
                                                 __CFG_WRTC$OFF 000000  
                                                 __CFG_WRTD$OFF 000000  
                                                __CFG_EBTRB$OFF 000000  
                                                 _PWM_DutyCycle 1BD8  
                                              _LCD_SendDataByte 173E  
                                         _KeyPad_Initialization 28DA  
                                            _LCD_Initialization 1CC2  
                             __size_of_Global_interrupt_disable 0004  
                                     ?_Global_interrupt_disable 0001  
                                                         pclath 000FFA  
                                                         tablat 000FF5  
                                              __end_of_PWM_Stop 2998  
                            _g_u16PWM_reg_value_at_100DutyCycle 003A  
                                                         ttemp5 0058  
                                                         ttemp6 005B  
                                                         ttemp7 005F  
                                                         status 000FD8  
                                               ??_KeyPad_switch 0007  
                                                         wtemp8 0058  
                                           ?_LCD_Initialization 0001  
                           __end_of_ADC_Select_acquisition_time 2A48  
                                   _ADC_Select_acquisition_time 2A38  
                                          _GPIO_SetPinDirection 0A9A  
                                            __size_of_PWM_Start 0020  
                     __end_of_Heating_process_has_done_function 173E  
                    __size_of_Heating_process_has_done_function 014E  
                           ??_Heating_process_has_done_function 0014  
                            ?_Heating_process_has_done_function 0001  
                             _Heating_process_has_done_function 15F0  
                                       GPIO_WriteOnPin@a_u8port 000A  
                                       ?_LCD_SetDisplayPosition 000D  
                                          ?_Reset_to_idle_state 0001  
                                         __end_of_Timer0_enable 2A9E  
                                                __CFG_MCLRE$OFF 000000  
                                          _g_system_state_var_t 0048  
                                               __initialization 2932  
                                         __end_of_Timer2_enable 2AA6  
                             PWM_Initialization@a_PWM_channel_t 0006  
                                                  __end_of_main 19CA  
                                      ??_Weight_sensor_function 0014  
                                    __end_of_LCD_SendDataString 287C  
                                      PWM_Start@a_PWM_channel_t 0006  
                                                __CFG_OSC$RCIO6 000000  
                                 ??_ADC_Select_acquisition_time 0006  
                                                        ??_main 0038  
                                                 __activetblptr 000002  
                                          ??_LCD_Initialization 000D  
                                                ?_PWM_Frequency 001F  
                                 ?_GPIO_Enable_Pull_Up_On_PortB 0001  
                                                ?_PWM_DutyCycle 001F  
                                             ??_GPIO_WriteOnPin 0008  
                                              ___llmod@dividend 0006  
                                       __end_of_LCD_SendCommand 1F4C  
                                                        i2l4423 2A20  
                                                        i2l4431 28A0  
                                                        i2l4425 2A2C  
                                                        i2l4433 28B2  
                                                        i2l4427 2A32  
                                                        i2l4435 28CC  
                                                        i2l4429 2886  
                                                        i2l3773 29BE  
                                           __size_of_TIMER0_ISR 0018  
                                                        i2l3775 29CE  
                                                        i2l3777 29D6  
                                __size_of_Timer0_Initialization 006A  
                               GPIO_Disable_ADC_On_Pins@a_u8pin 0006  
                                 __end_of_Timer0_Initialization 26F0  
                                __end_of_LCD_SetDisplayPosition 228C  
                                         ?_GPIO_SetPinDirection 0006  
                                         ??_Reset_to_idle_state 0015  
                                 __size_of_ADC_Select_prescaler 000E  
                                                __CFG_XINST$OFF 000000  
                                   __size_of_ADC_Initialization 0116  
                                                _Timer0_disable 2AAE  
                                                        ___lmul 26F0  
                                  __end_of_ADC_Start_conversion 2AAA  
                                                        ___wmul 2998  
                                                __CFG_STVREN$ON 000000  
                                                     ??___lldiv 001A  
                                                     ??___llmod 000E  
                                                     ??___lwdiv 0018  
                                KeyPad_Initialization@u8counter 000D  
                                                     ??___lwmod 001F  
                                                        clear_0 2958  
                                                  __pdataCOMRAM 004A  
                                                  _g_u8position 0049  
                               __size_of_Welcome_screen_display 0072  
                                             __end_of_PWM_Start 2A00  
                                                  __mediumconst 0000  
                                                        tblptrh 000FF7  
                                                        tblptrl 000FF6  
                                                        tblptru 000FF8  
                                                _g_door_state_t 0050  
                                        ?_KeyPad_Initialization 0001  
                                  __end_of_Door_sensor_function 231A  
                                      _GPIO_Disable_ADC_On_Pins 1498  
                                     GPIO_WriteOnPort@a_u8value 0006  
                                 __size_of_KeyPad_getPressedKey 00BC  
                                       _Global_interrupt_enable 2A9E  
                                                    __accesstop 0080  
                                       __end_of__initialization 295E  
                                               __CFG_PBADEN$OFF 000000  
                                      GPIO_WriteOnPin@a_u8value 0007  
                                                 ___rparam_used 000001  
                                        __end_of_Timer0_disable 2AB2  
                                                __pcstackCOMRAM 0001  
                                __size_of_Timer2_Initialization 000E  
                                 __end_of_Timer2_Initialization 2A56  
                               __size_of_Weight_sensor_function 009E  
                                           _Display_remind_time 1DAC  
                                               ??_PWM_Frequency 0023  
                                                     ?_PWM_Stop 0001  
                                               ??_PWM_DutyCycle 0020  
                             ADC_Initialization@a_ADC_channel_t 0008  
                                              ?_LCD_SendCommand 0001  
                                ??_GPIO_Enable_Pull_Up_On_PortB 0006  
                                          ?_Display_remind_time 0001  
                                  __end_of_Timer0_write_counter 29E0  
                                        ??_GPIO_SetPinDirection 0008  
                                            _PWM_Initialization 2A00  
                                        _Welcome_screen_display 2614  
                                               ?_Timer0_disable 0001  
                                        KeyPad_switch@ReturnVal 000A  
                 Timer0_write_counter@a_u16init_value_for_timer 0001  
                                             ?_GPIO_WriteOnPort 0006  
                                            __CFG_CCP2MX$PORTBE 000000  
                                           ?_PWM_Initialization 0001  
                                             ?_LCD_DisplaNumber 001F  
                                                       ?___lmul 0006  
                                                       ?___wmul 000E  
                                            ??_GPIO_WriteOnPort 0007  
                                      __end_of_LCD_SendDataByte 188A  
                                                  ??_TIMER0_ISR 0003  
                                            ??_LCD_DisplaNumber 0023  
                                                ___lmul@product 000E  
                              __end_of_Global_interrupt_disable 2AB6  
                                     __size_of_GPIO_ReadFromPin 00F8  
                                                    ??_PWM_Stop 0006  
                                       __size_of_ADC_Read_value 0074  
                                          ??_PWM_Initialization 0006  
                                      LCD_SendDataByte@a_u8data 0011  
                                     ??_Global_interrupt_enable 0006  
                                        _Weight_sensor_function 2156  
                              GPIO_Disable_ADC_On_Pins@a_u8port 0009  
                                          _ADC_Start_conversion 2AA6  
                            PWM_Frequency@u8period_register_val 0027  
                                         ??_Display_remind_time 0020  
                                            __end_of_TIMER0_ISR 2A38  
                     __end_of_Timer0_disable_overflow_interrupt 2AAE  
                    __size_of_Timer0_disable_overflow_interrupt 0004  
                           ??_Timer0_disable_overflow_interrupt 0006  
                            ?_Timer0_disable_overflow_interrupt 0001  
                             _Timer0_disable_overflow_interrupt 2AAA  
                                                       __Hparam 0000  
                                                       __Lparam 0000  
                                   __end_of_Home_screen_display 20B2  
                                               _Timer0_config_t 004A  
                                               __size_of___lmul 006A  
                                                       ___lldiv 20B2  
                                               __size_of___wmul 0026  
                                                       ___llmod 23A6  
                                                       ___lwdiv 25A0  
                                                       ___lwmod 275A  
                                                  __psmallconst 0600  
                                               _GPIO_WriteOnPin 0D34  
                                          _Door_sensor_function 228C  
                                                       __pcinit 2932  
                                                       __ramtop 0600  
                                                       __ptext0 188A  
                                                       __ptext1 2614  
                                                       __ptext2 2156  
                                                       __ptext3 06E8  
                                                       __ptext4 2A96  
                                                       __ptext5 2A9A  
                                                       __ptext6 29E0  
                                                       __ptext7 2A9E  
                                                       __ptext8 2A7E  
                                                       __ptext9 2686  
                                                  __size_of_ISR 28D2  
                                               _Timer2_config_t 003C  
                                         LCD_DisplaNumber@check 002B  
                                            _LCD_SendDataString 281E  
                                         ?_ADC_Start_conversion 0001  
                                                __pintcode_body 287C  
                                      __size_of_LCD_ClearScreen 000C  
                                          end_of_initialization 295E  
                                                 _g_u8timer_arr 0051  
           __end_of_User_insert_time_and_start_heating_function 0A9A  
          __size_of_User_insert_time_and_start_heating_function 03B2  
                 ??_User_insert_time_and_start_heating_function 0034  
                  ?_User_insert_time_and_start_heating_function 0001  
                   _User_insert_time_and_start_heating_function 06E8  
                                           ?_LCD_SendDataString 0012  
                                                 __Lmediumconst 0000  
                                                       int_func 287C  
                                         __end_of_KeyPad_switch 1498  
                                               ___lldiv@divisor 0016  
                                         _g_u8keypad_button_val 004F  
                                               ___lldiv@counter 001E  
                                          ADC_Read_value@retVal 000C  
                         ADC_Select_prescaler@a_ADC_prescaler_t 0006  
                                                       postdec1 000FE5  
                                                       postinc0 000FEE  
                                         ?_Door_sensor_function 0001  
                                          ??_LCD_SendDataString 0014  
                            KeyPad_Initialization@u8counter_170 000C  
                                          _Timer0_write_counter 29BE  
                                     LCD_DisplaNumber@u8counter 002A  
                                       ??_KeyPad_Initialization 000C  
                                    ??_GPIO_Disable_ADC_On_Pins 0007  
                                  __end_of_ADC_Select_prescaler 2A64  
                                   __size_of_LCD_Initialization 00EA  
                                      _Global_interrupt_disable 2AB2  
                                        __size_of_Timer0_enable 0004  
                                        __size_of_Timer2_enable 0004  
                                                     _PWM_Start 29E0  
                          LCD_SetDisplayPosition@a_u8position_X 0010  
                          LCD_SetDisplayPosition@a_u8position_Y 000D  
                                   __end_of_Reset_to_idle_state 281E  
                                    __end_of_ADC_Initialization 1AE0  
                                       __end_of_GPIO_WriteOnPin 0FBC  
                                         _Timer0_Initialization 2686  
                                  __end_of_KeyPad_getPressedKey 2008  
                                                __end_of___lmul 275A  
                                                __end_of___wmul 29BE  
                                                 __pidataCOMRAM 2A64  
                                         ?_Timer0_write_counter 0001  
                                              _GPIO_ReadFromPin 1AE0  
                                                _ADC_Read_value 252C  
                          __end_of_Timer0_set_callback_function 2A88  
                         __size_of_Timer0_set_callback_function 000A  
                                  _Timer0_set_callback_function 2A7E  
                                                 fp__TIMER0_ISR 0000  
                                           start_initialization 2932  
                                             __size_of_PWM_Stop 002C  
                                                   __end_of_ISR 28DA  
                                        ??_ADC_Start_conversion 0006  
                             GPIO_SetPinDirection@a_u8direction 0007  
                       __end_of_If_heating_is_canceled_function 252C  
                      __size_of_If_heating_is_canceled_function 007C  
                             ??_If_heating_is_canceled_function 0014  
                              ?_If_heating_is_canceled_function 0001  
                               _If_heating_is_canceled_function 24B0  
                                                    ?_PWM_Start 0001  
                                              ??_Timer0_disable 0006  
                                       ?_Welcome_screen_display 0001  
                                               ___llmod@divisor 000A  
                                               ___llmod@counter 000E  
                      __end_of_GPIO_Disable_Comparator_On_PORTA 2A96  
                     __size_of_GPIO_Disable_Comparator_On_PORTA 0006  
                            ??_GPIO_Disable_Comparator_On_PORTA 0006  
                             ?_GPIO_Disable_Comparator_On_PORTA 0001  
                              _GPIO_Disable_Comparator_On_PORTA 2A90  
                                             ??_LCD_ClearScreen 000D  
                                                 _Timer0_enable 2A9A  
                                                      ??___lmul 000E  
                                                 _Timer2_enable 2AA2  
                                                      ??___wmul 0012  
                                        ??_Door_sensor_function 0014  
                                           LCD_DisplaNumber@div 0030  
                                             ?_LCD_SendDataByte 0001  
                                              __CFG_LPT1OSC$OFF 000000  
                                        __end_of_ADC_Read_value 25A0  
                                         _Timer2_Initialization 2A48  
                                            ??_LCD_SendDataByte 0011  
                      __end_of_Timer0_enable_overflow_interrupt 2A9A  
                     __size_of_Timer0_enable_overflow_interrupt 0004  
                            ??_Timer0_enable_overflow_interrupt 0006  
                             ?_Timer0_enable_overflow_interrupt 0001  
                              _Timer0_enable_overflow_interrupt 2A96  
                                         __end_of_PWM_Frequency 1328  
                                     __size_of_GPIO_WriteOnPort 008C  
                                       ?_Weight_sensor_function 0001  
                                                   __pbssCOMRAM 003A  
                                 ?_Timer0_set_callback_function 0006  
                                         __end_of_PWM_DutyCycle 1CC2  
                                     __size_of_LCD_DisplaNumber 01DC  
                                LCD_SendDataString@a_u8data_ptr 0012  
                                      ??_LCD_SetDisplayPosition 000E  
                                __end_of_Welcome_screen_display 2686  
                                  PWM_DutyCycle@a_PWM_channel_t 0022  
                                        ?_Timer0_Initialization 0001  
                                 __size_of_GPIO_SetPinDirection 029A  
                                                ?_Timer0_enable 0001  
                                          _ADC_Select_prescaler 2A56  
                                              ___lwdiv@dividend 0014  
                                  ?_ADC_Select_acquisition_time 0001  
                                              ?_GPIO_WriteOnPin 0006  
                                      __size_of_LCD_SendCommand 00C6  
                                                ?_Timer2_enable 0001  
                                                     __pintcode 0008  
                          __end_of_Set_and_Display_desired_temp 24B0  
                         __size_of_Set_and_Display_desired_temp 0082  
                                  _Set_and_Display_desired_temp 242E  
                                                      ?___lldiv 0012  
                                                      ?___llmod 0006  
                                                      ?___lwdiv 0014  
                                                      ?___lwmod 001B  
                                        ??_Timer0_write_counter 0003  
                                               ?_ADC_Read_value 0006  
                                 KeyPad_getPressedKey@ReturnVal 000D  
                                __end_of_Weight_sensor_function 21F4  
                                                   __smallconst 0600  
                                   __end_of_Display_remind_time 1E86  
                                       LCD_DisplaNumber@DigitNo 002F  
                                   __size_of_PWM_Initialization 0020  
                                              ___lwdiv@quotient 0018  
                                                   ??_PWM_Start 0006  
                                          _KeyPad_getPressedKey 1F4C  
                                  GPIO_SetPinDirection@a_u8port 000A  
                                    LCD_SendCommand@a_u8command 000C  
                                                ___wmul@product 0012  
              _User_insert_time_and_start_heating_function$1548 0036  
                                         ?_ADC_Select_prescaler 0001  
                                                      i2u314_40 28A0  
                                                      i2u314_41 289C  
                                                      i2u315_40 28B2  
                                                      i2u315_41 28AE  
                                                      i2u316_48 28B8  
                                                      i2u316_49 28CC  
                                                      i2u267_40 29CE  
                                                      i2u267_41 29CA  
                                              __CFG_WDTPS$32768 000000  
                                        ?_Timer2_Initialization 0001  
                                 ?_Set_and_Display_desired_temp 0001  
                                    ??_Global_interrupt_disable 0006  
                                             ___wmul@multiplier 000E  
                                  __size_of_Home_screen_display 00AA  
                                                      _PWM_Stop 296C  
                                      ?_Global_interrupt_enable 0001  
                                __size_of_KeyPad_Initialization 0058  
                                 __end_of_KeyPad_Initialization 2932  
                                             ___lmul@multiplier 0006  
                                                     copy_data0 2946  
                                               _g_u8time_digits 0045  
                               __size_of_LCD_SetDisplayPosition 0098  
                                ??_Timer0_set_callback_function 0008  
                                         ?_KeyPad_getPressedKey 0001  
                                               _g_u8temperature 0044  
                                      __end_of_GPIO_ReadFromPin 1BD8  
                          __end_of_Timer2_write_period_register 2A90  
                         __size_of_Timer2_write_period_register 0008  
                                  _Timer2_write_period_register 2A88  
                                               ??_Timer0_enable 0006  
                                               ??_Timer2_enable 0006  
                                                      __Hrparam 0000  
                                                      __Lrparam 0000  
                                            __CFG_BOREN$SBORDIS 000000  
                                              __size_of___lldiv 00A4  
                                              __size_of___llmod 0088  
                                              __size_of___lwdiv 0074  
                                              __size_of___lwmod 0064  
                                   __size_of_LCD_SendDataString 005E  
                                             ??_LCD_SendCommand 000C  
                                    __end_of_LCD_Initialization 1DAC  
                              PWM_DutyCycle@u16PWM_register_val 0023  
                                            _ADC_Initialization 19CA  
                                   LCD_DisplaNumber@a_s32number 001F  
                                              _GPIO_WriteOnPort 231A  
                                      GPIO_WriteOnPort@a_u8port 000A  
                    Timer0_set_callback_function@a_function_ptr 0006  
                                        __size_of_KeyPad_switch 0170  
                          __size_of_ADC_Select_acquisition_time 0010  
                                              _LCD_DisplaNumber 0FBC  
                                               ___lwdiv@divisor 0016  
                                           ?_ADC_Initialization 0001  
                                               ___lwdiv@counter 001A  
                                          KeyPad_switch@a_u8col 0006  
                                                      __ptext10 242E  
                                                      __ptext11 2998  
                                                      __ptext20 2008  
                                                      __ptext12 1BD8  
                                                      __ptext21 228C  
                                                      __ptext13 2AA2  
                                                      __ptext30 1328  
                                                      __ptext22 2A00  
                                                      __ptext14 0FBC  
                                                      __ptext31 1AE0  
                                                      __ptext23 1198  
                                                      __ptext15 26F0  
                                                      __ptext40 2AB2  
                                                      __ptext32 28DA  
                                                      __ptext24 20B2  
                                                      __ptext16 23A6  
                                                      __ptext41 2AB6  
                                                      __ptext33 0A9A  
                                                      __ptext25 2A88  
                                                      __ptext17 2AA6  
                                                      __ptext50 231A  
                                                      __ptext42 2A90  
                                                      __ptext34 15F0  
                                                      __ptext26 2A48  
                                                      __ptext18 252C  
                                                      __ptext51 0D34  
                                                      __ptext43 1498  
                                                      __ptext35 2AAA  
                                                      __ptext27 1CC2  
                                                      __ptext19 27BE  
                                                      __ptext52 2A56  
                                                      __ptext44 1DAC  
                                                      __ptext36 2AAE  
                                                      __ptext28 24B0  
                                                      __ptext53 2A38  
                                                      __ptext45 275A  
                                                      __ptext37 296C  
                                                      __ptext29 1F4C  
                                          KeyPad_switch@a_u8row 0009  
                                                      __ptext54 19CA  
                                                      __ptext46 25A0  
                                                      __ptext38 281E  
                                                      __ptext47 173E  
                                                      __ptext39 2A72  
                                                      __ptext56 2A20  
                                                      __ptext48 21F4  
                                                      __ptext57 29BE  
                                                      __ptext49 1E86  
                                                      __ptext58 0000  
                                               _LCD_ClearScreen 2A72  
                                                 __size_of_main 0140  
                                        ??_ADC_Select_prescaler 0006  
                             __size_of_GPIO_Disable_ADC_On_Pins 0158  
                                     ?_GPIO_Disable_ADC_On_Pins 0006  
                                 ?_Timer2_write_period_register 0001  
                                  __size_of_Reset_to_idle_state 0060  
                                          ??_ADC_Initialization 0006  
                                                      int$flags 0057  
                                        _LCD_SetDisplayPosition 21F4  
                              PWM_DutyCycle@a_u16PWM_duty_cycle 001F  
                               __end_of_Global_interrupt_enable 2AA2  
                                ??_Set_and_Display_desired_temp 0034  
                              KeyPad_getPressedKey@u8colCounter 000F  
                                        ??_KeyPad_getPressedKey 000C  
                                     __size_of_LCD_SendDataByte 014C  
                                 __size_of_ADC_Start_conversion 0004  
                                                      intlevel2 0000  
                                       ??_Timer0_Initialization 0006  
                                              ___lwmod@dividend 001B  
                                              ___lldiv@dividend 0012  
                                            _g_inside_microwave 0046  
                                                 _KeyPad_switch 1328  
                                              ??_ADC_Read_value 0008  
                                           _timer0_callback_ptr 0042  
                                                    _TIMER0_ISR 2A20  
                                 __size_of_Door_sensor_function 008E  
                                       __end_of_LCD_ClearScreen 2A7E  
                                  __end_of_GPIO_SetPinDirection 0D34  
                                              ___lldiv@quotient 001A  
                                               ___lwmod@divisor 001D  
                                               ___lwmod@counter 001F  
                                       PWM_Stop@a_PWM_channel_t 0006  
                                     _g_u8heating_finished_flag 0047  
                                           _Home_screen_display 2008  
                                                ?_KeyPad_switch 0006  
                                       ??_Timer2_Initialization 0006  
           ADC_Select_acquisition_time@a_ADC_acquisition_Time_t 0006  
                                        __size_of_PWM_Frequency 0190  
